
SENSE.elf:     file format elf32-avr

Sections:
Idx Name          Size      VMA       LMA       File off  Algn
  0 .data         00000182  00800100  0000390c  000039a0  2**0
                  CONTENTS, ALLOC, LOAD, DATA
  1 .text         0000390c  00000000  00000000  00000094  2**1
                  CONTENTS, ALLOC, LOAD, READONLY, CODE
  2 .bss          0000009b  00800282  00800282  00003b22  2**0
                  ALLOC
  3 .stab         00003438  00000000  00000000  00003b24  2**2
                  CONTENTS, READONLY, DEBUGGING
  4 .stabstr      00000962  00000000  00000000  00006f5c  2**0
                  CONTENTS, READONLY, DEBUGGING
  5 .debug_aranges 00000080  00000000  00000000  000078be  2**0
                  CONTENTS, READONLY, DEBUGGING
  6 .debug_pubnames 000006df  00000000  00000000  0000793e  2**0
                  CONTENTS, READONLY, DEBUGGING
  7 .debug_info   00002004  00000000  00000000  0000801d  2**0
                  CONTENTS, READONLY, DEBUGGING
  8 .debug_abbrev 00000629  00000000  00000000  0000a021  2**0
                  CONTENTS, READONLY, DEBUGGING
  9 .debug_line   0000289e  00000000  00000000  0000a64a  2**0
                  CONTENTS, READONLY, DEBUGGING
 10 .debug_frame  00000330  00000000  00000000  0000cee8  2**2
                  CONTENTS, READONLY, DEBUGGING
 11 .debug_str    000008ce  00000000  00000000  0000d218  2**0
                  CONTENTS, READONLY, DEBUGGING
 12 .debug_loc    000017f5  00000000  00000000  0000dae6  2**0
                  CONTENTS, READONLY, DEBUGGING
 13 .debug_pubtypes 00000140  00000000  00000000  0000f2db  2**0
                  CONTENTS, READONLY, DEBUGGING
 14 .debug_ranges 00000048  00000000  00000000  0000f41b  2**0
                  CONTENTS, READONLY, DEBUGGING

Disassembly of section .text:

00000000 <__vectors>:
       0:	0c 94 b5 00 	jmp	0x16a	; 0x16a <__ctors_end>
       4:	0c 94 d2 00 	jmp	0x1a4	; 0x1a4 <__bad_interrupt>
       8:	0c 94 d2 00 	jmp	0x1a4	; 0x1a4 <__bad_interrupt>
       c:	0c 94 d2 00 	jmp	0x1a4	; 0x1a4 <__bad_interrupt>
      10:	0c 94 d2 00 	jmp	0x1a4	; 0x1a4 <__bad_interrupt>
      14:	0c 94 d2 00 	jmp	0x1a4	; 0x1a4 <__bad_interrupt>
      18:	0c 94 d2 00 	jmp	0x1a4	; 0x1a4 <__bad_interrupt>
      1c:	0c 94 d2 00 	jmp	0x1a4	; 0x1a4 <__bad_interrupt>
      20:	0c 94 a5 04 	jmp	0x94a	; 0x94a <__vector_8>
      24:	0c 94 d2 00 	jmp	0x1a4	; 0x1a4 <__bad_interrupt>
      28:	0c 94 d2 00 	jmp	0x1a4	; 0x1a4 <__bad_interrupt>
      2c:	0c 94 d2 00 	jmp	0x1a4	; 0x1a4 <__bad_interrupt>
      30:	0c 94 d2 00 	jmp	0x1a4	; 0x1a4 <__bad_interrupt>
      34:	0c 94 d2 00 	jmp	0x1a4	; 0x1a4 <__bad_interrupt>
      38:	0c 94 d2 00 	jmp	0x1a4	; 0x1a4 <__bad_interrupt>
      3c:	0c 94 21 09 	jmp	0x1242	; 0x1242 <__vector_15>
      40:	0c 94 d2 00 	jmp	0x1a4	; 0x1a4 <__bad_interrupt>
      44:	0c 94 d2 00 	jmp	0x1a4	; 0x1a4 <__bad_interrupt>
      48:	0c 94 d2 00 	jmp	0x1a4	; 0x1a4 <__bad_interrupt>
      4c:	0c 94 d2 00 	jmp	0x1a4	; 0x1a4 <__bad_interrupt>
      50:	0c 94 d2 00 	jmp	0x1a4	; 0x1a4 <__bad_interrupt>
      54:	0c 94 f9 05 	jmp	0xbf2	; 0xbf2 <__vector_21>
      58:	0c 94 d2 00 	jmp	0x1a4	; 0x1a4 <__bad_interrupt>
      5c:	0c 94 d2 00 	jmp	0x1a4	; 0x1a4 <__bad_interrupt>
      60:	0c 94 d2 00 	jmp	0x1a4	; 0x1a4 <__bad_interrupt>
      64:	0c 94 d2 00 	jmp	0x1a4	; 0x1a4 <__bad_interrupt>

00000068 <__c.1912>:
      68:	6e 61 6e 00                                         nan.

0000006c <__c.1910>:
      6c:	69 6e 66 00 00 40 7a 10 f3 5a 00 a0 72 4e 18 09     inf..@z..Z..rN..
      7c:	00 10 a5 d4 e8 00 00 e8 76 48 17 00 00 e4 0b 54     ........vH.....T
      8c:	02 00 00 ca 9a 3b 00 00 00 e1 f5 05 00 00 80 96     .....;..........
      9c:	98 00 00 00 40 42 0f 00 00 00 a0 86 01 00 00 00     ....@B..........
      ac:	10 27 00 00 00 00 e8 03 00 00 00 00 64 00 00 00     .'..........d...
      bc:	00 00 0a 00 00 00 00 00 01 00 00 00 00 00 2c 76     ..............,v
      cc:	d8 88 dc 67 4f 08 23 df c1 df ae 59 e1 b1 b7 96     ...gO.#....Y....
      dc:	e5 e3 e4 53 c6 3a e6 51 99 76 96 e8 e6 c2 84 26     ...S.:.Q.v.....&
      ec:	eb 89 8c 9b 62 ed 40 7c 6f fc ef bc 9c 9f 40 f2     ....b.@|o.....@.
      fc:	ba a5 6f a5 f4 90 05 5a 2a f7 5c 93 6b 6c f9 67     ..o....Z*.\.kl.g
     10c:	6d c1 1b fc e0 e4 0d 47 fe f5 20 e6 b5 00 d0 ed     m......G.. .....
     11c:	90 2e 03 00 94 35 77 05 00 80 84 1e 08 00 00 20     .....5w........ 
     12c:	4e 0a 00 00 00 c8 0c 33 33 33 33 0f 98 6e 12 83     N......3333..n..
     13c:	11 41 ef 8d 21 14 89 3b e6 55 16 cf fe e6 db 18     .A..!..;.U......
     14c:	d1 84 4b 38 1b f7 7c 1d 90 1d a4 bb e4 24 20 32     ..K8..|......$ 2
     15c:	84 72 5e 22 81 00 c9 f1 24 ec a1 e5 3d 27           .r^"....$...='

0000016a <__ctors_end>:
     16a:	11 24       	eor	r1, r1
     16c:	1f be       	out	0x3f, r1	; 63
     16e:	cf ef       	ldi	r28, 0xFF	; 255
     170:	d8 e0       	ldi	r29, 0x08	; 8
     172:	de bf       	out	0x3e, r29	; 62
     174:	cd bf       	out	0x3d, r28	; 61

00000176 <__do_copy_data>:
     176:	12 e0       	ldi	r17, 0x02	; 2
     178:	a0 e0       	ldi	r26, 0x00	; 0
     17a:	b1 e0       	ldi	r27, 0x01	; 1
     17c:	ec e0       	ldi	r30, 0x0C	; 12
     17e:	f9 e3       	ldi	r31, 0x39	; 57
     180:	02 c0       	rjmp	.+4      	; 0x186 <__do_copy_data+0x10>
     182:	05 90       	lpm	r0, Z+
     184:	0d 92       	st	X+, r0
     186:	a2 38       	cpi	r26, 0x82	; 130
     188:	b1 07       	cpc	r27, r17
     18a:	d9 f7       	brne	.-10     	; 0x182 <__do_copy_data+0xc>

0000018c <__do_clear_bss>:
     18c:	13 e0       	ldi	r17, 0x03	; 3
     18e:	a2 e8       	ldi	r26, 0x82	; 130
     190:	b2 e0       	ldi	r27, 0x02	; 2
     192:	01 c0       	rjmp	.+2      	; 0x196 <.do_clear_bss_start>

00000194 <.do_clear_bss_loop>:
     194:	1d 92       	st	X+, r1

00000196 <.do_clear_bss_start>:
     196:	ad 31       	cpi	r26, 0x1D	; 29
     198:	b1 07       	cpc	r27, r17
     19a:	e1 f7       	brne	.-8      	; 0x194 <.do_clear_bss_loop>
     19c:	0e 94 dd 0a 	call	0x15ba	; 0x15ba <main>
     1a0:	0c 94 84 1c 	jmp	0x3908	; 0x3908 <_exit>

000001a4 <__bad_interrupt>:
     1a4:	0c 94 00 00 	jmp	0	; 0x0 <__vectors>

000001a8 <LCDBusyLoop>:
	//This function waits till lcd is BUSY

	uint8_t busy,status=0x00,temp;

	//Change Port to input type because we are reading data
	LCD_DATA_DDR&=0xF0;
     1a8:	84 b1       	in	r24, 0x04	; 4
     1aa:	80 7f       	andi	r24, 0xF0	; 240
     1ac:	84 b9       	out	0x04, r24	; 4

	//change LCD mode
	SET_RW();		//Read mode
     1ae:	2c 9a       	sbi	0x05, 4	; 5
	CLEAR_RS();		//Read status
     1b0:	2d 98       	cbi	0x05, 5	; 5
	#else
		//round up by default
		__ticks_dc = (uint32_t)(ceil(fabs(__tmp)));
	#endif

	__builtin_avr_delay_cycles(__ticks_dc);
     1b2:	82 e0       	ldi	r24, 0x02	; 2
     1b4:	8a 95       	dec	r24
     1b6:	f1 f7       	brne	.-4      	; 0x1b4 <LCDBusyLoop+0xc>
     1b8:	00 c0       	rjmp	.+0      	; 0x1ba <LCDBusyLoop+0x12>
	_delay_us(HALF);		//tAS
	
	do
	{

		SET_E();
     1ba:	5f 9a       	sbi	0x0b, 7	; 11
     1bc:	92 e0       	ldi	r25, 0x02	; 2
     1be:	9a 95       	dec	r25
     1c0:	f1 f7       	brne	.-4      	; 0x1be <LCDBusyLoop+0x16>
     1c2:	00 c0       	rjmp	.+0      	; 0x1c4 <LCDBusyLoop+0x1c>

		//Wait tDA for data to become available
		_delay_us(HALF);

		status=LCD_DATA_PIN;
     1c4:	83 b1       	in	r24, 0x03	; 3
		status=status<<4;
     1c6:	82 95       	swap	r24
     1c8:	80 7f       	andi	r24, 0xF0	; 240
     1ca:	92 e0       	ldi	r25, 0x02	; 2
     1cc:	9a 95       	dec	r25
     1ce:	f1 f7       	brne	.-4      	; 0x1cc <LCDBusyLoop+0x24>
     1d0:	00 c0       	rjmp	.+0      	; 0x1d2 <LCDBusyLoop+0x2a>

		_delay_us(HALF);

		//Pull E low
		CLEAR_E();
     1d2:	5f 98       	cbi	0x0b, 7	; 11
     1d4:	95 e0       	ldi	r25, 0x05	; 5
     1d6:	9a 95       	dec	r25
     1d8:	f1 f7       	brne	.-4      	; 0x1d6 <LCDBusyLoop+0x2e>
     1da:	00 00       	nop
		_delay_us(ONE);	//tEL

		SET_E();
     1dc:	5f 9a       	sbi	0x0b, 7	; 11
     1de:	92 e0       	ldi	r25, 0x02	; 2
     1e0:	9a 95       	dec	r25
     1e2:	f1 f7       	brne	.-4      	; 0x1e0 <LCDBusyLoop+0x38>
     1e4:	00 c0       	rjmp	.+0      	; 0x1e6 <LCDBusyLoop+0x3e>
		_delay_us(HALF);

		temp=LCD_DATA_PIN;
     1e6:	93 b1       	in	r25, 0x03	; 3
     1e8:	92 e0       	ldi	r25, 0x02	; 2
     1ea:	9a 95       	dec	r25
     1ec:	f1 f7       	brne	.-4      	; 0x1ea <LCDBusyLoop+0x42>
     1ee:	00 c0       	rjmp	.+0      	; 0x1f0 <LCDBusyLoop+0x48>
		status=status|temp;

		busy=status & 0b10000000;

		_delay_us(HALF);
		CLEAR_E();
     1f0:	5f 98       	cbi	0x0b, 7	; 11
     1f2:	95 e0       	ldi	r25, 0x05	; 5
     1f4:	9a 95       	dec	r25
     1f6:	f1 f7       	brne	.-4      	; 0x1f4 <LCDBusyLoop+0x4c>
     1f8:	00 00       	nop
		_delay_us(ONE);	//tEL
	}while(busy);
     1fa:	87 fd       	sbrc	r24, 7
     1fc:	de cf       	rjmp	.-68     	; 0x1ba <LCDBusyLoop+0x12>

	CLEAR_RW();		//write mode
     1fe:	2c 98       	cbi	0x05, 4	; 5
	//Change Port to output
	LCD_DATA_DDR|=0x0F;
     200:	84 b1       	in	r24, 0x04	; 4
     202:	8f 60       	ori	r24, 0x0F	; 15
     204:	84 b9       	out	0x04, r24	; 4

}
     206:	08 95       	ret

00000208 <LCDByte>:
	//NOTE: THIS FUNCTION RETURS ONLY WHEN LCD HAS PROCESSED THE COMMAND

	uint8_t hn,ln;			//Nibbles
	uint8_t temp;

	hn=c>>4;
     208:	28 2f       	mov	r18, r24
     20a:	22 95       	swap	r18
     20c:	2f 70       	andi	r18, 0x0F	; 15
	ln=(c & 0x0F);
     20e:	8f 70       	andi	r24, 0x0F	; 15

	if(isdata==0)
     210:	66 23       	and	r22, r22
     212:	11 f4       	brne	.+4      	; 0x218 <LCDByte+0x10>
		CLEAR_RS();
     214:	2d 98       	cbi	0x05, 5	; 5
     216:	01 c0       	rjmp	.+2      	; 0x21a <LCDByte+0x12>
	else
		SET_RS();
     218:	2d 9a       	sbi	0x05, 5	; 5
     21a:	92 e0       	ldi	r25, 0x02	; 2
     21c:	9a 95       	dec	r25
     21e:	f1 f7       	brne	.-4      	; 0x21c <LCDByte+0x14>
     220:	00 c0       	rjmp	.+0      	; 0x222 <LCDByte+0x1a>

	_delay_us(HALF);		//tAS

	SET_E();
     222:	5f 9a       	sbi	0x0b, 7	; 11

	//Send high nibble

	temp=(LCD_DATA_PORT & 0XF0)|(hn);
     224:	95 b1       	in	r25, 0x05	; 5
     226:	90 7f       	andi	r25, 0xF0	; 240
     228:	92 2b       	or	r25, r18
	LCD_DATA_PORT=temp;
     22a:	95 b9       	out	0x05, r25	; 5
     22c:	95 e0       	ldi	r25, 0x05	; 5
     22e:	9a 95       	dec	r25
     230:	f1 f7       	brne	.-4      	; 0x22e <LCDByte+0x26>
     232:	00 00       	nop

	_delay_us(ONE);			//tEH

	//Now data lines are stable pull E low for transmission

	CLEAR_E();
     234:	5f 98       	cbi	0x0b, 7	; 11
     236:	95 e0       	ldi	r25, 0x05	; 5
     238:	9a 95       	dec	r25
     23a:	f1 f7       	brne	.-4      	; 0x238 <LCDByte+0x30>
     23c:	00 00       	nop

	_delay_us(ONE);

	//Send the lower nibble
	SET_E();
     23e:	5f 9a       	sbi	0x0b, 7	; 11

	temp=(LCD_DATA_PORT & 0XF0)|(ln);
     240:	95 b1       	in	r25, 0x05	; 5
     242:	90 7f       	andi	r25, 0xF0	; 240
     244:	98 2b       	or	r25, r24

	LCD_DATA_PORT=temp;
     246:	95 b9       	out	0x05, r25	; 5
     248:	85 e0       	ldi	r24, 0x05	; 5
     24a:	8a 95       	dec	r24
     24c:	f1 f7       	brne	.-4      	; 0x24a <LCDByte+0x42>
     24e:	00 00       	nop

	_delay_us(ONE);			//tEH

	//SEND

	CLEAR_E();
     250:	5f 98       	cbi	0x0b, 7	; 11
     252:	95 e0       	ldi	r25, 0x05	; 5
     254:	9a 95       	dec	r25
     256:	f1 f7       	brne	.-4      	; 0x254 <LCDByte+0x4c>
     258:	00 00       	nop

	_delay_us(ONE);			//tEL

	LCDBusyLoop();
     25a:	0e 94 d4 00 	call	0x1a8	; 0x1a8 <LCDBusyLoop>
}
     25e:	08 95       	ret

00000260 <InitLCD>:
	LCD_DATA_DDR|=0x0F;

}

void InitLCD(uint8_t style)
{
     260:	df 93       	push	r29
     262:	cf 93       	push	r28
     264:	0f 92       	push	r0
     266:	cd b7       	in	r28, 0x3d	; 61
     268:	de b7       	in	r29, 0x3e	; 62
	#else
		//round up by default
		__ticks_dc = (uint32_t)(ceil(fabs(__tmp)));
	#endif

	__builtin_avr_delay_cycles(__ticks_dc);
     26a:	2f ef       	ldi	r18, 0xFF	; 255
     26c:	36 e7       	ldi	r19, 0x76	; 118
     26e:	41 e0       	ldi	r20, 0x01	; 1
     270:	21 50       	subi	r18, 0x01	; 1
     272:	30 40       	sbci	r19, 0x00	; 0
     274:	40 40       	sbci	r20, 0x00	; 0
     276:	e1 f7       	brne	.-8      	; 0x270 <InitLCD+0x10>
     278:	00 c0       	rjmp	.+0      	; 0x27a <InitLCD+0x1a>
     27a:	00 00       	nop
	
	//After power on Wait for LCD to Initialize
	_delay_ms(THIRTY);
	
	//Set IO Ports
	LCD_DATA_DDR|=(0x0F);
     27c:	94 b1       	in	r25, 0x04	; 4
     27e:	9f 60       	ori	r25, 0x0F	; 15
     280:	94 b9       	out	0x04, r25	; 4
	LCD_E_DDR|=(1<<LCD_E_POS);
     282:	57 9a       	sbi	0x0a, 7	; 10
	LCD_RS_DDR|=(1<<LCD_RS_POS);
     284:	25 9a       	sbi	0x04, 5	; 4
	LCD_RW_DDR|=(1<<LCD_RW_POS);
     286:	24 9a       	sbi	0x04, 4	; 4

	LCD_DATA_PORT&=0XF0;
     288:	95 b1       	in	r25, 0x05	; 5
     28a:	90 7f       	andi	r25, 0xF0	; 240
     28c:	95 b9       	out	0x05, r25	; 5
	CLEAR_E();
     28e:	5f 98       	cbi	0x0b, 7	; 11
	CLEAR_RW();
     290:	2c 98       	cbi	0x05, 4	; 5
	CLEAR_RS();
     292:	2d 98       	cbi	0x05, 5	; 5
	#else
		//round up by default
		__ticks_dc = (uint32_t)(ceil(fabs(__tmp)));
	#endif

	__builtin_avr_delay_cycles(__ticks_dc);
     294:	00 c0       	rjmp	.+0      	; 0x296 <InitLCD+0x36>
     296:	00 c0       	rjmp	.+0      	; 0x298 <InitLCD+0x38>
     298:	00 00       	nop

	//Set 4-bit mode
	_delay_us(DOT_THREE);	//tAS

	SET_E();
     29a:	5f 9a       	sbi	0x0b, 7	; 11
	LCD_DATA_PORT|=(0b00000010); //[B] To transfer 0b00100000 i was using LCD_DATA_PORT|=0b00100000
     29c:	29 9a       	sbi	0x05, 1	; 5
     29e:	35 e0       	ldi	r19, 0x05	; 5
     2a0:	3a 95       	dec	r19
     2a2:	f1 f7       	brne	.-4      	; 0x2a0 <InitLCD+0x40>
     2a4:	00 00       	nop
	_delay_us(ONE);
	CLEAR_E();
     2a6:	5f 98       	cbi	0x0b, 7	; 11
     2a8:	45 e0       	ldi	r20, 0x05	; 5
     2aa:	4a 95       	dec	r20
     2ac:	f1 f7       	brne	.-4      	; 0x2aa <InitLCD+0x4a>
     2ae:	00 00       	nop
	_delay_us(ONE);
	
	//Wait for LCD to execute the Functionset Command
	LCDBusyLoop();                                    //[B] Forgot this delay
     2b0:	89 83       	std	Y+1, r24	; 0x01
     2b2:	0e 94 d4 00 	call	0x1a8	; 0x1a8 <LCDBusyLoop>

	//Now the LCD is in 4-bit mode

	LCDCmd(0b00001100|style);	//Display On
     2b6:	89 81       	ldd	r24, Y+1	; 0x01
     2b8:	8c 60       	ori	r24, 0x0C	; 12
     2ba:	60 e0       	ldi	r22, 0x00	; 0
     2bc:	0e 94 04 01 	call	0x208	; 0x208 <LCDByte>
	LCDCmd(0b00101000);			//function set 4-bit,2 line 5x7 dot format
     2c0:	88 e2       	ldi	r24, 0x28	; 40
     2c2:	60 e0       	ldi	r22, 0x00	; 0
     2c4:	0e 94 04 01 	call	0x208	; 0x208 <LCDByte>
}
     2c8:	0f 90       	pop	r0
     2ca:	cf 91       	pop	r28
     2cc:	df 91       	pop	r29
     2ce:	08 95       	ret

000002d0 <LCDWriteString>:
void LCDWriteString(const char *msg)
{
     2d0:	ef 92       	push	r14
     2d2:	ff 92       	push	r15
     2d4:	cf 93       	push	r28
     2d6:	df 93       	push	r29
     2d8:	e8 2e       	mov	r14, r24
     2da:	e7 01       	movw	r28, r14
     2dc:	7e 01       	movw	r14, r28
     2de:	f9 2e       	mov	r15, r25
     2e0:	e7 01       	movw	r28, r14
	Arguments:
	msg: a null terminated string to print


	*****************************************************************/
 while(*msg!='\0')
     2e2:	03 c0       	rjmp	.+6      	; 0x2ea <LCDWriteString+0x1a>
 {
	LCDData(*msg);
     2e4:	61 e0       	ldi	r22, 0x01	; 1
     2e6:	0e 94 04 01 	call	0x208	; 0x208 <LCDByte>
	Arguments:
	msg: a null terminated string to print


	*****************************************************************/
 while(*msg!='\0')
     2ea:	89 91       	ld	r24, Y+
     2ec:	88 23       	and	r24, r24
     2ee:	d1 f7       	brne	.-12     	; 0x2e4 <LCDWriteString+0x14>
 {
	LCDData(*msg);
	msg++;
 }
}
     2f0:	df 91       	pop	r29
     2f2:	cf 91       	pop	r28
     2f4:	ff 90       	pop	r15
     2f6:	ef 90       	pop	r14
     2f8:	08 95       	ret

000002fa <LCDWriteInt>:

void LCDWriteInt(int val,unsigned int field_length)
{
     2fa:	ef 92       	push	r14
     2fc:	ff 92       	push	r15
     2fe:	0f 93       	push	r16
     300:	1f 93       	push	r17
     302:	df 93       	push	r29
     304:	cf 93       	push	r28
     306:	00 d0       	rcall	.+0      	; 0x308 <LCDWriteInt+0xe>
     308:	00 d0       	rcall	.+0      	; 0x30a <LCDWriteInt+0x10>
     30a:	0f 92       	push	r0
     30c:	cd b7       	in	r28, 0x3d	; 61
     30e:	de b7       	in	r29, 0x3e	; 62
     310:	9b 01       	movw	r18, r22
	2)unsigned int field_length :total length of field in which the value is printed
	must be between 1-5 if it is -1 the field length is no of digits in the val

	****************************************************************/

	char str[5]={0,0,0,0,0};
     312:	fe 01       	movw	r30, r28
     314:	31 96       	adiw	r30, 0x01	; 1
     316:	45 e0       	ldi	r20, 0x05	; 5
     318:	df 01       	movw	r26, r30
     31a:	1d 92       	st	X+, r1
     31c:	4a 95       	dec	r20
     31e:	e9 f7       	brne	.-6      	; 0x31a <LCDWriteInt+0x20>
     320:	fe 01       	movw	r30, r28
     322:	36 96       	adiw	r30, 0x06	; 6
	int i=4,j=0;
	while(val)
	{
	str[i]=val%10;
     324:	0a e0       	ldi	r16, 0x0A	; 10
     326:	10 e0       	ldi	r17, 0x00	; 0

	****************************************************************/

	char str[5]={0,0,0,0,0};
	int i=4,j=0;
	while(val)
     328:	05 c0       	rjmp	.+10     	; 0x334 <LCDWriteInt+0x3a>
	{
	str[i]=val%10;
     32a:	b8 01       	movw	r22, r16
     32c:	0e 94 8b 1a 	call	0x3516	; 0x3516 <__divmodhi4>
     330:	82 93       	st	-Z, r24
	val=val/10;
     332:	cb 01       	movw	r24, r22

	****************************************************************/

	char str[5]={0,0,0,0,0};
	int i=4,j=0;
	while(val)
     334:	00 97       	sbiw	r24, 0x00	; 0
     336:	c9 f7       	brne	.-14     	; 0x32a <LCDWriteInt+0x30>
	{
	str[i]=val%10;
	val=val/10;
	i--;
	}
	if(field_length==-1)
     338:	bf ef       	ldi	r27, 0xFF	; 255
     33a:	2f 3f       	cpi	r18, 0xFF	; 255
     33c:	3b 07       	cpc	r19, r27
     33e:	51 f4       	brne	.+20     	; 0x354 <LCDWriteInt+0x5a>
     340:	fe 01       	movw	r30, r28
     342:	31 96       	adiw	r30, 0x01	; 1
     344:	80 e0       	ldi	r24, 0x00	; 0
     346:	90 e0       	ldi	r25, 0x00	; 0
     348:	01 c0       	rjmp	.+2      	; 0x34c <LCDWriteInt+0x52>
		while(str[j]==0) j++;
     34a:	01 96       	adiw	r24, 0x01	; 1
     34c:	21 91       	ld	r18, Z+
     34e:	22 23       	and	r18, r18
     350:	e1 f3       	breq	.-8      	; 0x34a <LCDWriteInt+0x50>
     352:	04 c0       	rjmp	.+8      	; 0x35c <LCDWriteInt+0x62>
	else
		j=5-field_length;
     354:	85 e0       	ldi	r24, 0x05	; 5
     356:	90 e0       	ldi	r25, 0x00	; 0
     358:	82 1b       	sub	r24, r18
     35a:	93 0b       	sbc	r25, r19
	LCDData(*msg);
	msg++;
 }
}

void LCDWriteInt(int val,unsigned int field_length)
     35c:	8e 01       	movw	r16, r28
     35e:	0f 5f       	subi	r16, 0xFF	; 255
     360:	1f 4f       	sbci	r17, 0xFF	; 255
     362:	08 0f       	add	r16, r24
     364:	19 1f       	adc	r17, r25
     366:	7c 01       	movw	r14, r24
     368:	0a c0       	rjmp	.+20     	; 0x37e <LCDWriteInt+0x84>
		j=5-field_length;

	if(val<0) LCDData('-');
	for(i=j;i<5;i++)
	{
	LCDData(48+str[i]);
     36a:	f8 01       	movw	r30, r16
     36c:	81 91       	ld	r24, Z+
     36e:	8f 01       	movw	r16, r30
     370:	80 5d       	subi	r24, 0xD0	; 208
     372:	61 e0       	ldi	r22, 0x01	; 1
     374:	0e 94 04 01 	call	0x208	; 0x208 <LCDByte>
		while(str[j]==0) j++;
	else
		j=5-field_length;

	if(val<0) LCDData('-');
	for(i=j;i<5;i++)
     378:	08 94       	sec
     37a:	e1 1c       	adc	r14, r1
     37c:	f1 1c       	adc	r15, r1
     37e:	f5 e0       	ldi	r31, 0x05	; 5
     380:	ef 16       	cp	r14, r31
     382:	f1 04       	cpc	r15, r1
     384:	94 f3       	brlt	.-28     	; 0x36a <LCDWriteInt+0x70>
	{
	LCDData(48+str[i]);
	}
}
     386:	0f 90       	pop	r0
     388:	0f 90       	pop	r0
     38a:	0f 90       	pop	r0
     38c:	0f 90       	pop	r0
     38e:	0f 90       	pop	r0
     390:	cf 91       	pop	r28
     392:	df 91       	pop	r29
     394:	1f 91       	pop	r17
     396:	0f 91       	pop	r16
     398:	ff 90       	pop	r15
     39a:	ef 90       	pop	r14
     39c:	08 95       	ret

0000039e <LCDGotoXY>:
void LCDGotoXY(uint8_t x,uint8_t y)
{
 if(x<40)
     39e:	88 32       	cpi	r24, 0x28	; 40
     3a0:	30 f4       	brcc	.+12     	; 0x3ae <LCDGotoXY+0x10>
 {
  if(y) x|=0b01000000;
     3a2:	61 11       	cpse	r22, r1
     3a4:	80 64       	ori	r24, 0x40	; 64
  x|=0b10000000;
  LCDCmd(x);
     3a6:	80 68       	ori	r24, 0x80	; 128
     3a8:	60 e0       	ldi	r22, 0x00	; 0
     3aa:	0e 94 04 01 	call	0x208	; 0x208 <LCDByte>
     3ae:	08 95       	ret

000003b0 <LCDWriteStringXY>:
  }
}

void LCDWriteStringXY(uint8_t x, uint8_t y, const char *msg){
     3b0:	cf 93       	push	r28
     3b2:	df 93       	push	r29
     3b4:	ea 01       	movw	r28, r20
	LCDGotoXY(x, y);
     3b6:	0e 94 cf 01 	call	0x39e	; 0x39e <LCDGotoXY>
	LCDWriteString(msg);
     3ba:	ce 01       	movw	r24, r28
     3bc:	0e 94 68 01 	call	0x2d0	; 0x2d0 <LCDWriteString>
}
     3c0:	df 91       	pop	r29
     3c2:	cf 91       	pop	r28
     3c4:	08 95       	ret

000003c6 <EEPROM_open>:
#endif


uint8_t EEPROM_open(void){
	
	TWSR = 0;
     3c6:	10 92 b9 00 	sts	0x00B9, r1
	TWBR = ((F_CPU / TWI_BITRATE) - 16) / 2;
     3ca:	8c e0       	ldi	r24, 0x0C	; 12
     3cc:	80 93 b8 00 	sts	0x00B8, r24
	if (TWBR < 11)
     3d0:	90 91 b8 00 	lds	r25, 0x00B8
		return 0;
     3d4:	81 e0       	ldi	r24, 0x01	; 1
     3d6:	9b 30       	cpi	r25, 0x0B	; 11
     3d8:	08 f4       	brcc	.+2      	; 0x3dc <EEPROM_open+0x16>
     3da:	80 e0       	ldi	r24, 0x00	; 0
	return 1;
}
     3dc:	08 95       	ret

000003de <i2c_start>:
#include "i2c.h"


unsigned char i2c_start(void)
{
	TWCR = (1<<TWINT)|(1<<TWSTA)|(1<<TWEN);		//Send START condition
     3de:	84 ea       	ldi	r24, 0xA4	; 164
     3e0:	80 93 bc 00 	sts	0x00BC, r24
	
	while (!(TWCR & (1<<TWINT)));   		//Wait for TWINT flag set. This indicates that the
     3e4:	80 91 bc 00 	lds	r24, 0x00BC
     3e8:	87 ff       	sbrs	r24, 7
     3ea:	fc cf       	rjmp	.-8      	; 0x3e4 <i2c_start+0x6>
											//START condition has been transmitted
	
	if (((TWSR & 0xF8) == START) || ((TWSR & 0xF8) == REPEAT_START))
     3ec:	80 91 b9 00 	lds	r24, 0x00B9
     3f0:	88 7f       	andi	r24, 0xF8	; 248
     3f2:	88 30       	cpi	r24, 0x08	; 8
     3f4:	41 f0       	breq	.+16     	; 0x406 <i2c_start+0x28>
     3f6:	90 91 b9 00 	lds	r25, 0x00B9
     3fa:	98 7f       	andi	r25, 0xF8	; 248
		return 0;
     3fc:	81 e0       	ldi	r24, 0x01	; 1
     3fe:	90 31       	cpi	r25, 0x10	; 16
     400:	19 f4       	brne	.+6      	; 0x408 <i2c_start+0x2a>
     402:	80 e0       	ldi	r24, 0x00	; 0
     404:	08 95       	ret
     406:	80 e0       	ldi	r24, 0x00	; 0
	else
		return 1;
}
     408:	08 95       	ret

0000040a <i2c_start_address>:

unsigned char i2c_start_address(unsigned char address)
{
	uint8_t twst;
	
	TWCR = (1<<TWINT)|(1<<TWEN)|(1<<TWSTA);		// Prepare and send START condition
     40a:	94 ea       	ldi	r25, 0xA4	; 164
     40c:	90 93 bc 00 	sts	0x00BC, r25
	
	while (!(TWCR & (1<<TWINT)));   		//Wait for TWINT flag set. This indicates that the
     410:	90 91 bc 00 	lds	r25, 0x00BC
     414:	97 ff       	sbrs	r25, 7
     416:	fc cf       	rjmp	.-8      	; 0x410 <i2c_start_address+0x6>
											//START condition has been transmitted
	twst = TWSR & 0xF8;
     418:	90 91 b9 00 	lds	r25, 0x00B9
     41c:	98 7f       	andi	r25, 0xF8	; 248
	
	if ((twst != START) && (twst != REPEAT_START))
     41e:	98 30       	cpi	r25, 0x08	; 8
     420:	11 f0       	breq	.+4      	; 0x426 <i2c_start_address+0x1c>
     422:	90 31       	cpi	r25, 0x10	; 16
     424:	99 f4       	brne	.+38     	; 0x44c <i2c_start_address+0x42>
		return 2;
	
	TWDR = address;
     426:	80 93 bb 00 	sts	0x00BB, r24
	TWCR = (1<<TWINT)|(1<<TWEN);
     42a:	84 e8       	ldi	r24, 0x84	; 132
     42c:	80 93 bc 00 	sts	0x00BC, r24
	
	while(!(TWCR & (1<<TWINT)));
     430:	80 91 bc 00 	lds	r24, 0x00BC
     434:	87 ff       	sbrs	r24, 7
     436:	fc cf       	rjmp	.-8      	; 0x430 <i2c_start_address+0x26>
	
	//twst = TW_STATUS & 0xF8;
	twst = TWSR & 0xf8;
     438:	90 91 b9 00 	lds	r25, 0x00B9
     43c:	98 7f       	andi	r25, 0xF8	; 248
	
	if ( (twst != MT_SLA_ACK) && (twst != MR_SLA_NACK) )
     43e:	98 31       	cpi	r25, 0x18	; 24
     440:	39 f0       	breq	.+14     	; 0x450 <i2c_start_address+0x46>
		return 0;
	else
		return 1;
}

unsigned char i2c_start_address(unsigned char address)
     442:	81 e0       	ldi	r24, 0x01	; 1
     444:	98 34       	cpi	r25, 0x48	; 72
     446:	29 f4       	brne	.+10     	; 0x452 <i2c_start_address+0x48>
     448:	80 e0       	ldi	r24, 0x00	; 0
     44a:	08 95       	ret
	while (!(TWCR & (1<<TWINT)));   		//Wait for TWINT flag set. This indicates that the
											//START condition has been transmitted
	twst = TWSR & 0xF8;
	
	if ((twst != START) && (twst != REPEAT_START))
		return 2;
     44c:	82 e0       	ldi	r24, 0x02	; 2
     44e:	08 95       	ret
	twst = TWSR & 0xf8;
	
	if ( (twst != MT_SLA_ACK) && (twst != MR_SLA_NACK) )
		return 1;
	
	return 0;
     450:	80 e0       	ldi	r24, 0x00	; 0
}
     452:	08 95       	ret

00000454 <i2c_repeatStart>:

unsigned char i2c_repeatStart(void)
{
 
	TWCR = (1<<TWINT)|(1<<TWSTA)|(1<<TWEN); 		//Send START condition
     454:	84 ea       	ldi	r24, 0xA4	; 164
     456:	80 93 bc 00 	sts	0x00BC, r24
    
	while (!(TWCR & (1<<TWINT)));
     45a:	80 91 bc 00 	lds	r24, 0x00BC
     45e:	87 ff       	sbrs	r24, 7
     460:	fc cf       	rjmp	.-8      	; 0x45a <i2c_repeatStart+0x6>
	
	if ((TWSR & 0xF8) == REPEAT_START)
     462:	90 91 b9 00 	lds	r25, 0x00B9
     466:	98 7f       	andi	r25, 0xF8	; 248
		return(0);
     468:	81 e0       	ldi	r24, 0x01	; 1
     46a:	90 31       	cpi	r25, 0x10	; 16
     46c:	09 f4       	brne	.+2      	; 0x470 <i2c_repeatStart+0x1c>
     46e:	80 e0       	ldi	r24, 0x00	; 0
	else
		return(1);
}
     470:	08 95       	ret

00000472 <i2c_sendAddress_ACK>:
	//if((address & 0x01) == 0)		// == EEPROM_W
		//STATUS = MT_SLA_ACK;		// Write (master transmit)
	//else
		//STATUS = MR_SLA_ACK; 		// Read (master receive)
   
	TWDR = address;						//Load SLA_W/SLA_R into TWDR Register. Clear TWINT bit
     472:	80 93 bb 00 	sts	0x00BB, r24
	TWCR = (1<<TWINT)|(1<<TWEN);
     476:	84 e8       	ldi	r24, 0x84	; 132
     478:	80 93 bc 00 	sts	0x00BC, r24
	TWCR |= (1<<TWEA);					//in TWCR to start transmission of address
     47c:	80 91 bc 00 	lds	r24, 0x00BC
     480:	80 64       	ori	r24, 0x40	; 64
     482:	80 93 bc 00 	sts	0x00BC, r24

	while (!(TWCR & (1<<TWINT)));		//Wait for TWINT flag set. This indicates that the
     486:	80 91 bc 00 	lds	r24, 0x00BC
     48a:	87 ff       	sbrs	r24, 7
     48c:	fc cf       	rjmp	.-8      	; 0x486 <i2c_sendAddress_ACK+0x14>
										//SLA+W has been transmitted, and ACK/NACK has been received.
	//return TWSR;
	if (((TWSR & 0xF8) == MT_SLA_ACK)||((TWSR & 0xF8) == MR_SLA_ACK))
     48e:	80 91 b9 00 	lds	r24, 0x00B9
     492:	88 7f       	andi	r24, 0xF8	; 248
     494:	88 31       	cpi	r24, 0x18	; 24
     496:	41 f0       	breq	.+16     	; 0x4a8 <i2c_sendAddress_ACK+0x36>
     498:	90 91 b9 00 	lds	r25, 0x00B9
     49c:	98 7f       	andi	r25, 0xF8	; 248
		return(0);
     49e:	81 e0       	ldi	r24, 0x01	; 1
     4a0:	90 34       	cpi	r25, 0x40	; 64
     4a2:	19 f4       	brne	.+6      	; 0x4aa <i2c_sendAddress_ACK+0x38>
     4a4:	80 e0       	ldi	r24, 0x00	; 0
     4a6:	08 95       	ret
     4a8:	80 e0       	ldi	r24, 0x00	; 0
	else 
		return(1);
}
     4aa:	08 95       	ret

000004ac <i2c_sendAddress_NACK>:

unsigned char i2c_sendAddress_NACK(unsigned char address)	// lsb of ADDRESS is R/W bit || R/W =1 --> Read operation!
{
	unsigned char STATUS;
   
	if((address & 0x01) == 0)		// == EEPROM_W
     4ac:	80 ff       	sbrs	r24, 0
     4ae:	02 c0       	rjmp	.+4      	; 0x4b4 <i2c_sendAddress_NACK+0x8>
		STATUS = MT_SLA_NACK;		// Write (master transmit)
	else
		STATUS = MR_SLA_NACK; 		// Read (master receive)
     4b0:	48 e4       	ldi	r20, 0x48	; 72
     4b2:	01 c0       	rjmp	.+2      	; 0x4b6 <i2c_sendAddress_NACK+0xa>
unsigned char i2c_sendAddress_NACK(unsigned char address)	// lsb of ADDRESS is R/W bit || R/W =1 --> Read operation!
{
	unsigned char STATUS;
   
	if((address & 0x01) == 0)		// == EEPROM_W
		STATUS = MT_SLA_NACK;		// Write (master transmit)
     4b4:	40 e2       	ldi	r20, 0x20	; 32
	else
		STATUS = MR_SLA_NACK; 		// Read (master receive)
   
	TWDR = address;					//Load SLA_W/SLA_R into TWDR Register. Clear TWINT bit
     4b6:	80 93 bb 00 	sts	0x00BB, r24
	TWCR = (1<<TWINT)|(1<<TWEN);		//in TWCR to start transmission of address
     4ba:	84 e8       	ldi	r24, 0x84	; 132
     4bc:	80 93 bc 00 	sts	0x00BC, r24

	while (!(TWCR & (1<<TWINT)));		//Wait for TWINT flag set. This indicates that the
     4c0:	80 91 bc 00 	lds	r24, 0x00BC
     4c4:	87 ff       	sbrs	r24, 7
     4c6:	fc cf       	rjmp	.-8      	; 0x4c0 <i2c_sendAddress_NACK+0x14>
										//SLA+W has been transmitted, and ACK/NACK has been received.
	//return TWSR;
	if ((TWSR & 0xF8) == STATUS)
     4c8:	20 91 b9 00 	lds	r18, 0x00B9
     4cc:	30 e0       	ldi	r19, 0x00	; 0
     4ce:	28 7f       	andi	r18, 0xF8	; 248
     4d0:	30 70       	andi	r19, 0x00	; 0
     4d2:	50 e0       	ldi	r21, 0x00	; 0
		return(0);
     4d4:	81 e0       	ldi	r24, 0x01	; 1
     4d6:	24 17       	cp	r18, r20
     4d8:	35 07       	cpc	r19, r21
     4da:	09 f4       	brne	.+2      	; 0x4de <i2c_sendAddress_NACK+0x32>
     4dc:	80 e0       	ldi	r24, 0x00	; 0
	else 
		return(1);
}
     4de:	08 95       	ret

000004e0 <i2c_sendData_ACK>:

unsigned char i2c_sendData_ACK(unsigned char data)
{
	TWDR = data; 
     4e0:	80 93 bb 00 	sts	0x00BB, r24
	TWCR = (1<<TWINT)|(1<<TWEN)|(1<<TWEA);
     4e4:	84 ec       	ldi	r24, 0xC4	; 196
     4e6:	80 93 bc 00 	sts	0x00BC, r24
	
	while (!(TWCR & (1<<TWINT)));
     4ea:	80 91 bc 00 	lds	r24, 0x00BC
     4ee:	87 ff       	sbrs	r24, 7
     4f0:	fc cf       	rjmp	.-8      	; 0x4ea <i2c_sendData_ACK+0xa>
	
	if (((TWSR & 0xF8) == MT_DATA_ACK)||((TWSR & 0xF8) == MT_DATA_ACK))
     4f2:	80 91 b9 00 	lds	r24, 0x00B9
     4f6:	88 7f       	andi	r24, 0xF8	; 248
     4f8:	88 32       	cpi	r24, 0x28	; 40
     4fa:	41 f0       	breq	.+16     	; 0x50c <i2c_sendData_ACK+0x2c>
     4fc:	90 91 b9 00 	lds	r25, 0x00B9
     500:	98 7f       	andi	r25, 0xF8	; 248
		return(0);
     502:	81 e0       	ldi	r24, 0x01	; 1
     504:	98 32       	cpi	r25, 0x28	; 40
     506:	19 f4       	brne	.+6      	; 0x50e <i2c_sendData_ACK+0x2e>
     508:	80 e0       	ldi	r24, 0x00	; 0
     50a:	08 95       	ret
     50c:	80 e0       	ldi	r24, 0x00	; 0
	else
		return(1);
}
     50e:	08 95       	ret

00000510 <i2c_sendData_NACK>:
unsigned char i2c_sendData_NACK(unsigned char data)
{
	TWDR = data; 
     510:	80 93 bb 00 	sts	0x00BB, r24
	TWCR = (1<<TWINT)|(1<<TWEN);
     514:	84 e8       	ldi	r24, 0x84	; 132
     516:	80 93 bc 00 	sts	0x00BC, r24
	
	while (!(TWCR & (1<<TWINT)));
     51a:	80 91 bc 00 	lds	r24, 0x00BC
     51e:	87 ff       	sbrs	r24, 7
     520:	fc cf       	rjmp	.-8      	; 0x51a <i2c_sendData_NACK+0xa>
	
	if ((TWSR & 0xF8) == MT_DATA_NACK)
     522:	90 91 b9 00 	lds	r25, 0x00B9
     526:	98 7f       	andi	r25, 0xF8	; 248
		return(0);
     528:	81 e0       	ldi	r24, 0x01	; 1
     52a:	90 33       	cpi	r25, 0x30	; 48
     52c:	09 f4       	brne	.+2      	; 0x530 <i2c_sendData_NACK+0x20>
     52e:	80 e0       	ldi	r24, 0x00	; 0
	else
		return(1);
}
     530:	08 95       	ret

00000532 <i2c_receiveData_ACK>:

unsigned char i2c_receiveData_ACK(void)
{
	unsigned char data;
  
	TWCR = (1<<TWEA)|(1<<TWINT)|(1<<TWEN);	// Enable ACKnowledge
     532:	84 ec       	ldi	r24, 0xC4	; 196
     534:	80 93 bc 00 	sts	0x00BC, r24
  
	while (!(TWCR & (1<<TWINT)));
     538:	80 91 bc 00 	lds	r24, 0x00BC
     53c:	87 ff       	sbrs	r24, 7
     53e:	fc cf       	rjmp	.-8      	; 0x538 <i2c_receiveData_ACK+0x6>
	
	if ((TWSR & 0xF8) != MR_DATA_ACK)
     540:	80 91 b9 00 	lds	r24, 0x00B9
     544:	88 7f       	andi	r24, 0xF8	; 248
     546:	80 35       	cpi	r24, 0x50	; 80
     548:	19 f4       	brne	.+6      	; 0x550 <i2c_receiveData_ACK+0x1e>
		return(ERROR_CODE);
  
	data = TWDR;
     54a:	80 91 bb 00 	lds	r24, 0x00BB
	return(data);
     54e:	08 95       	ret
	TWCR = (1<<TWEA)|(1<<TWINT)|(1<<TWEN);	// Enable ACKnowledge
  
	while (!(TWCR & (1<<TWINT)));
	
	if ((TWSR & 0xF8) != MR_DATA_ACK)
		return(ERROR_CODE);
     550:	87 ed       	ldi	r24, 0xD7	; 215
  
	data = TWDR;
	return(data);
}
     552:	08 95       	ret

00000554 <i2c_receiveData_NACK>:

unsigned char i2c_receiveData_NACK(void)
{
	unsigned char data;
  
	TWCR = (1<<TWINT)|(1<<TWEN);
     554:	84 e8       	ldi	r24, 0x84	; 132
     556:	80 93 bc 00 	sts	0x00BC, r24
  
	while (!(TWCR & (1<<TWINT)));
     55a:	80 91 bc 00 	lds	r24, 0x00BC
     55e:	87 ff       	sbrs	r24, 7
     560:	fc cf       	rjmp	.-8      	; 0x55a <i2c_receiveData_NACK+0x6>
	
	if ((TWSR & 0xF8) != MR_DATA_NACK)
     562:	80 91 b9 00 	lds	r24, 0x00B9
     566:	88 7f       	andi	r24, 0xF8	; 248
     568:	88 35       	cpi	r24, 0x58	; 88
     56a:	19 f4       	brne	.+6      	; 0x572 <i2c_receiveData_NACK+0x1e>
		return(ERROR_CODE);
  
	data = TWDR;
     56c:	80 91 bb 00 	lds	r24, 0x00BB
	return(data);
     570:	08 95       	ret
	TWCR = (1<<TWINT)|(1<<TWEN);
  
	while (!(TWCR & (1<<TWINT)));
	
	if ((TWSR & 0xF8) != MR_DATA_NACK)
		return(ERROR_CODE);
     572:	87 ed       	ldi	r24, 0xD7	; 215
  
	data = TWDR;
	return(data);
}
     574:	08 95       	ret

00000576 <i2c_stop>:
	return(TWDR);
}*/
 	
void i2c_stop(void)
{
	TWCR =  (1<<TWINT)|(1<<TWEN)|(1<<TWSTO);	  //Transmit STOP condition
     576:	84 e9       	ldi	r24, 0x94	; 148
     578:	80 93 bc 00 	sts	0x00BC, r24
	while(TWCR & (1<<TWSTO));
     57c:	80 91 bc 00 	lds	r24, 0x00BC
     580:	84 fd       	sbrc	r24, 4
     582:	fc cf       	rjmp	.-8      	; 0x57c <i2c_stop+0x6>
}  
     584:	08 95       	ret

00000586 <EEPROM_erase>:
	}
	return 0;
}


uint8_t EEPROM_erase(void){
     586:	1f 93       	push	r17
     588:	cf 93       	push	r28
     58a:	df 93       	push	r29
  
	uint8_t errorStatus;
	unsigned int i;
	
	errorStatus = i2c_start_address(SLA+W);
     58c:	80 ea       	ldi	r24, 0xA0	; 160
     58e:	0e 94 05 02 	call	0x40a	; 0x40a <i2c_start_address>
     592:	18 2f       	mov	r17, r24
	errorStatus |= i2c_sendData_ACK(0x00);
     594:	80 e0       	ldi	r24, 0x00	; 0
     596:	0e 94 70 02 	call	0x4e0	; 0x4e0 <i2c_sendData_ACK>
     59a:	18 2b       	or	r17, r24
	errorStatus |= i2c_sendData_ACK(0x00);
     59c:	80 e0       	ldi	r24, 0x00	; 0
     59e:	0e 94 70 02 	call	0x4e0	; 0x4e0 <i2c_sendData_ACK>
     5a2:	81 2b       	or	r24, r17
	if(errorStatus == 1){
     5a4:	81 30       	cpi	r24, 0x01	; 1
     5a6:	41 f0       	breq	.+16     	; 0x5b8 <EEPROM_erase+0x32>
     5a8:	c0 e0       	ldi	r28, 0x00	; 0
     5aa:	d0 e0       	ldi	r29, 0x00	; 0
     5ac:	0a c0       	rjmp	.+20     	; 0x5c2 <EEPROM_erase+0x3c>
		i2c_stop();
		return(1);
	} 
	
	for(i=0;i<0x8000;i++){
		errorStatus = i2c_sendData_ACK(0xff);
     5ae:	8f ef       	ldi	r24, 0xFF	; 255
     5b0:	0e 94 70 02 	call	0x4e0	; 0x4e0 <i2c_sendData_ACK>
		if(errorStatus == 1){
     5b4:	81 30       	cpi	r24, 0x01	; 1
     5b6:	21 f4       	brne	.+8      	; 0x5c0 <EEPROM_erase+0x3a>
			i2c_stop();
     5b8:	0e 94 bb 02 	call	0x576	; 0x576 <i2c_stop>
			return(1);
     5bc:	81 e0       	ldi	r24, 0x01	; 1
     5be:	06 c0       	rjmp	.+12     	; 0x5cc <EEPROM_erase+0x46>
	if(errorStatus == 1){
		i2c_stop();
		return(1);
	} 
	
	for(i=0;i<0x8000;i++){
     5c0:	21 96       	adiw	r28, 0x01	; 1
     5c2:	d7 ff       	sbrs	r29, 7
     5c4:	f4 cf       	rjmp	.-24     	; 0x5ae <EEPROM_erase+0x28>
			i2c_stop();
			return(1);
		}
	}
	
	i2c_stop();
     5c6:	0e 94 bb 02 	call	0x576	; 0x576 <i2c_stop>
	
	return(0);
     5ca:	80 e0       	ldi	r24, 0x00	; 0
}
     5cc:	df 91       	pop	r29
     5ce:	cf 91       	pop	r28
     5d0:	1f 91       	pop	r17
     5d2:	08 95       	ret

000005d4 <EEPROM_sequentialRead>:
	
	return(0);  
} 


uint8_t EEPROM_sequentialRead(uint32_t address, uint16_t numOfBytes, uint8_t * dest, uint8_t ACK){
     5d4:	cf 92       	push	r12
     5d6:	df 92       	push	r13
     5d8:	ef 92       	push	r14
     5da:	ff 92       	push	r15
     5dc:	0f 93       	push	r16
     5de:	1f 93       	push	r17
     5e0:	df 93       	push	r29
     5e2:	cf 93       	push	r28
     5e4:	00 d0       	rcall	.+0      	; 0x5e6 <EEPROM_sequentialRead+0x12>
     5e6:	0f 92       	push	r0
     5e8:	cd b7       	in	r28, 0x3d	; 61
     5ea:	de b7       	in	r29, 0x3e	; 62
     5ec:	6a 01       	movw	r12, r20
     5ee:	12 2f       	mov	r17, r18
	
	uint8_t errorStatus, i;
	uint8_t highAddress=(address>>8), lowAddress=(address);
	
	errorStatus = i2c_start();
     5f0:	3b 83       	std	Y+3, r19	; 0x03
     5f2:	6a 83       	std	Y+2, r22	; 0x02
     5f4:	79 83       	std	Y+1, r23	; 0x01
     5f6:	0e 94 ef 01 	call	0x3de	; 0x3de <i2c_start>
     5fa:	e8 2e       	mov	r14, r24
	#else
		//round up by default
		__ticks_dc = (uint32_t)(ceil(fabs(__tmp)));
	#endif

	__builtin_avr_delay_cycles(__ticks_dc);
     5fc:	8f ed       	ldi	r24, 0xDF	; 223
     5fe:	9e e2       	ldi	r25, 0x2E	; 46
     600:	01 97       	sbiw	r24, 0x01	; 1
     602:	f1 f7       	brne	.-4      	; 0x600 <EEPROM_sequentialRead+0x2c>
     604:	00 c0       	rjmp	.+0      	; 0x606 <EEPROM_sequentialRead+0x32>
     606:	00 00       	nop
	_delay_ms(3);
	errorStatus |= i2c_sendAddress_ACK(SLA+W);
     608:	80 ea       	ldi	r24, 0xA0	; 160
     60a:	0e 94 39 02 	call	0x472	; 0x472 <i2c_sendAddress_ACK>
     60e:	e8 2a       	or	r14, r24
	errorStatus |= i2c_sendData_ACK(highAddress);
     610:	79 81       	ldd	r23, Y+1	; 0x01
     612:	87 2f       	mov	r24, r23
     614:	0e 94 70 02 	call	0x4e0	; 0x4e0 <i2c_sendData_ACK>
     618:	e8 2a       	or	r14, r24
	errorStatus |= i2c_sendData_ACK(lowAddress);
     61a:	6a 81       	ldd	r22, Y+2	; 0x02
     61c:	86 2f       	mov	r24, r22
     61e:	0e 94 70 02 	call	0x4e0	; 0x4e0 <i2c_sendData_ACK>
     622:	e8 2a       	or	r14, r24
	errorStatus |= i2c_repeatStart();
     624:	0e 94 2a 02 	call	0x454	; 0x454 <i2c_repeatStart>
     628:	e8 2a       	or	r14, r24
	errorStatus |= i2c_sendAddress_ACK(SLA+R);
     62a:	81 ea       	ldi	r24, 0xA1	; 161
     62c:	0e 94 39 02 	call	0x472	; 0x472 <i2c_sendAddress_ACK>
     630:	e8 2a       	or	r14, r24
	
	if(errorStatus){
     632:	3b 81       	ldd	r19, Y+3	; 0x03
     634:	ee 20       	and	r14, r14
     636:	c1 f0       	breq	.+48     	; 0x668 <EEPROM_sequentialRead+0x94>
		i2c_stop();
     638:	0e 94 bb 02 	call	0x576	; 0x576 <i2c_stop>
		return errorStatus;
     63c:	20 c0       	rjmp	.+64     	; 0x67e <EEPROM_sequentialRead+0xaa>
	}
	
	for(i=0;i<numOfBytes;i++){
		if(ACK)
     63e:	00 23       	and	r16, r16
     640:	19 f0       	breq	.+6      	; 0x648 <EEPROM_sequentialRead+0x74>
			*dest = i2c_receiveData_ACK();
     642:	0e 94 99 02 	call	0x532	; 0x532 <i2c_receiveData_ACK>
     646:	02 c0       	rjmp	.+4      	; 0x64c <EEPROM_sequentialRead+0x78>
		else
			*dest = i2c_receiveData_NACK();
     648:	0e 94 aa 02 	call	0x554	; 0x554 <i2c_receiveData_NACK>
     64c:	f7 01       	movw	r30, r14
     64e:	80 83       	st	Z, r24
		
		if(*(++dest) == ERROR_CODE){
     650:	08 94       	sec
     652:	e1 1c       	adc	r14, r1
     654:	f1 1c       	adc	r15, r1
     656:	f7 01       	movw	r30, r14
     658:	80 81       	ld	r24, Z
     65a:	87 3d       	cpi	r24, 0xD7	; 215
     65c:	39 f4       	brne	.+14     	; 0x66c <EEPROM_sequentialRead+0x98>
			i2c_stop();
     65e:	0e 94 bb 02 	call	0x576	; 0x576 <i2c_stop>
	   		return(ERROR_CODE);
     662:	87 ed       	ldi	r24, 0xD7	; 215
     664:	e8 2e       	mov	r14, r24
     666:	0b c0       	rjmp	.+22     	; 0x67e <EEPROM_sequentialRead+0xaa>
	errorStatus |= i2c_sendData_ACK(highAddress);
	errorStatus |= i2c_sendData_ACK(lowAddress);
	errorStatus |= i2c_repeatStart();
	errorStatus |= i2c_sendAddress_ACK(SLA+R);
	
	if(errorStatus){
     668:	e1 2e       	mov	r14, r17
     66a:	f3 2e       	mov	r15, r19
		i2c_stop();
		return errorStatus;
	}
	
	for(i=0;i<numOfBytes;i++){
     66c:	8e 2d       	mov	r24, r14
     66e:	81 1b       	sub	r24, r17
     670:	90 e0       	ldi	r25, 0x00	; 0
     672:	8c 15       	cp	r24, r12
     674:	9d 05       	cpc	r25, r13
     676:	18 f3       	brcs	.-58     	; 0x63e <EEPROM_sequentialRead+0x6a>
		if(*(++dest) == ERROR_CODE){
			i2c_stop();
	   		return(ERROR_CODE);
		}
	}	
	i2c_stop();
     678:	0e 94 bb 02 	call	0x576	; 0x576 <i2c_stop>
	
	return numOfBytes;
     67c:	ec 2c       	mov	r14, r12
}
     67e:	8e 2d       	mov	r24, r14
     680:	0f 90       	pop	r0
     682:	0f 90       	pop	r0
     684:	0f 90       	pop	r0
     686:	cf 91       	pop	r28
     688:	df 91       	pop	r29
     68a:	1f 91       	pop	r17
     68c:	0f 91       	pop	r16
     68e:	ff 90       	pop	r15
     690:	ef 90       	pop	r14
     692:	df 90       	pop	r13
     694:	cf 90       	pop	r12
     696:	08 95       	ret

00000698 <EEPROM_readPage>:
	
	return length;
}


uint8_t * EEPROM_readPage( uint16_t pageNumber ){
     698:	0f 93       	push	r16
	
	uint8_t *values;
	unsigned int pageAddress, numOfRead;
	
	pageAddress = pageNumber * EEPROM_PAGESIZE;	// 128 = page size
     69a:	bc 01       	movw	r22, r24
     69c:	76 95       	lsr	r23
     69e:	76 2f       	mov	r23, r22
     6a0:	66 27       	eor	r22, r22
     6a2:	77 95       	ror	r23
     6a4:	67 95       	ror	r22
	
	numOfRead = EEPROM_sequentialRead(pageAddress, EEPROM_PAGESIZE, values, AT24_RR_ACK_TYPE);
     6a6:	80 e0       	ldi	r24, 0x00	; 0
     6a8:	90 e0       	ldi	r25, 0x00	; 0
     6aa:	40 e8       	ldi	r20, 0x80	; 128
     6ac:	50 e0       	ldi	r21, 0x00	; 0
     6ae:	20 e0       	ldi	r18, 0x00	; 0
     6b0:	30 e0       	ldi	r19, 0x00	; 0
     6b2:	00 e0       	ldi	r16, 0x00	; 0
     6b4:	0e 94 ea 02 	call	0x5d4	; 0x5d4 <EEPROM_sequentialRead>
	if(values==NULL){ return NULL; }
	else return values;
 } 
     6b8:	80 e0       	ldi	r24, 0x00	; 0
     6ba:	90 e0       	ldi	r25, 0x00	; 0
     6bc:	0f 91       	pop	r16
     6be:	08 95       	ret

000006c0 <EEPROM_writePage>:
  

uint8_t EEPROM_writePage( uint16_t pageNumber, uint8_t * data ){
     6c0:	1f 93       	push	r17
	uint8_t highAddress, lowAddress, errorStatus, i;
	unsigned int pageBaseAddress;
	
	pageBaseAddress = pageNumber * EEPROM_PAGESIZE;
	
	if((i2c_start_address(SLA+W))!=0){
     6c2:	80 ea       	ldi	r24, 0xA0	; 160
     6c4:	0e 94 05 02 	call	0x40a	; 0x40a <i2c_start_address>
     6c8:	88 23       	and	r24, r24
     6ca:	21 f0       	breq	.+8      	; 0x6d4 <EEPROM_writePage+0x14>
		i2c_stop();
     6cc:	0e 94 bb 02 	call	0x576	; 0x576 <i2c_stop>
		return ERROR_CODE-1; // returns 125 if encounters an error
     6d0:	86 ed       	ldi	r24, 0xD6	; 214
     6d2:	12 c0       	rjmp	.+36     	; 0x6f8 <EEPROM_writePage+0x38>
	}
	
	errorStatus |= i2c_sendData_ACK(highAddress);
     6d4:	80 e0       	ldi	r24, 0x00	; 0
     6d6:	0e 94 70 02 	call	0x4e0	; 0x4e0 <i2c_sendData_ACK>
     6da:	18 2f       	mov	r17, r24
	errorStatus |= i2c_sendData_ACK(lowAddress);
     6dc:	80 e0       	ldi	r24, 0x00	; 0
     6de:	0e 94 70 02 	call	0x4e0	; 0x4e0 <i2c_sendData_ACK>
     6e2:	81 2b       	or	r24, r17
	
	for(i=0;i<EEPROM_PAGESIZE;i++){
		
		
		
		if(errorStatus){
     6e4:	21 f0       	breq	.+8      	; 0x6ee <EEPROM_writePage+0x2e>
			i2c_stop();
     6e6:	0e 94 bb 02 	call	0x576	; 0x576 <i2c_stop>
			return 1;
     6ea:	81 e0       	ldi	r24, 0x01	; 1
     6ec:	05 c0       	rjmp	.+10     	; 0x6f8 <EEPROM_writePage+0x38>
	errorStatus |= i2c_sendData_ACK(highAddress);
	errorStatus |= i2c_sendData_ACK(lowAddress);
	
	
	
	for(i=0;i<EEPROM_PAGESIZE;i++){
     6ee:	80 e0       	ldi	r24, 0x00	; 0
     6f0:	8f 5f       	subi	r24, 0xFF	; 255
     6f2:	80 38       	cpi	r24, 0x80	; 128
     6f4:	e9 f7       	brne	.-6      	; 0x6f0 <EEPROM_writePage+0x30>
			return 1;
		}
	}
	
	
	return(0);  
     6f6:	80 e0       	ldi	r24, 0x00	; 0
} 
     6f8:	1f 91       	pop	r17
     6fa:	08 95       	ret

000006fc <EEPROM_writeByte>:
	i2c_stop();
	return data;
}


uint8_t EEPROM_writeByte(uint32_t address, uint8_t data, uint8_t ACK){
     6fc:	df 92       	push	r13
     6fe:	ef 92       	push	r14
     700:	ff 92       	push	r15
     702:	0f 93       	push	r16
     704:	1f 93       	push	r17
     706:	df 93       	push	r29
     708:	cf 93       	push	r28
     70a:	0f 92       	push	r0
     70c:	cd b7       	in	r28, 0x3d	; 61
     70e:	de b7       	in	r29, 0x3e	; 62
     710:	16 2f       	mov	r17, r22
     712:	04 2f       	mov	r16, r20
     714:	e2 2e       	mov	r14, r18
	
	uint8_t errorStatus, page, highAddress, lowAddress, slaveAddress;
	page = address >> 16;
     716:	f8 2e       	mov	r15, r24
	lowAddress=address;
	char str[10];
	
	slaveAddress = SLA;
	#ifdef EEPROM_EXTENDED_SIZE
	  if(page!=0){				// addressing a byte inside first page
     718:	88 23       	and	r24, r24
     71a:	11 f4       	brne	.+4      	; 0x720 <EEPROM_writeByte+0x24>
	page = address >> 16;
	highAddress=address>>8;
	lowAddress=address;
	char str[10];
	
	slaveAddress = SLA;
     71c:	80 ea       	ldi	r24, 0xA0	; 160
     71e:	01 c0       	rjmp	.+2      	; 0x722 <EEPROM_writeByte+0x26>
	#ifdef EEPROM_EXTENDED_SIZE
	  if(page!=0){				// addressing a byte inside first page
		  slaveAddress += PAGE_1;
     720:	88 ea       	ldi	r24, 0xA8	; 168
	  }
	#endif
	
	if((i2c_start_address(slaveAddress+W))!=0){
     722:	79 83       	std	Y+1, r23	; 0x01
     724:	0e 94 05 02 	call	0x40a	; 0x40a <i2c_start_address>
     728:	79 81       	ldd	r23, Y+1	; 0x01
     72a:	88 23       	and	r24, r24
     72c:	51 f4       	brne	.+20     	; 0x742 <EEPROM_writeByte+0x46>
		i2c_stop();
		return ERROR_CODE-1; // returns 125 if encounters an error
	}
	errorStatus |= i2c_sendData_ACK(highAddress);
     72e:	87 2f       	mov	r24, r23
     730:	0e 94 70 02 	call	0x4e0	; 0x4e0 <i2c_sendData_ACK>
     734:	d8 2e       	mov	r13, r24
	errorStatus |= i2c_sendData_ACK(lowAddress);
     736:	81 2f       	mov	r24, r17
     738:	0e 94 70 02 	call	0x4e0	; 0x4e0 <i2c_sendData_ACK>
     73c:	8d 29       	or	r24, r13
	
	if(errorStatus == 1){
     73e:	81 30       	cpi	r24, 0x01	; 1
     740:	21 f4       	brne	.+8      	; 0x74a <EEPROM_writeByte+0x4e>
		i2c_stop();
     742:	0e 94 bb 02 	call	0x576	; 0x576 <i2c_stop>
		return(ERROR_CODE-1);
     746:	86 ed       	ldi	r24, 0xD6	; 214
     748:	1c c0       	rjmp	.+56     	; 0x782 <EEPROM_writeByte+0x86>
	}
	if(ACK)
     74a:	ee 20       	and	r14, r14
     74c:	21 f0       	breq	.+8      	; 0x756 <EEPROM_writeByte+0x5a>
		errorStatus = i2c_sendData_ACK(data);
     74e:	80 2f       	mov	r24, r16
     750:	0e 94 70 02 	call	0x4e0	; 0x4e0 <i2c_sendData_ACK>
     754:	03 c0       	rjmp	.+6      	; 0x75c <EEPROM_writeByte+0x60>
	else
		errorStatus = i2c_sendData_NACK(data);
     756:	80 2f       	mov	r24, r16
     758:	0e 94 88 02 	call	0x510	; 0x510 <i2c_sendData_NACK>
	
	if(errorStatus == 1){
     75c:	81 30       	cpi	r24, 0x01	; 1
     75e:	21 f4       	brne	.+8      	; 0x768 <EEPROM_writeByte+0x6c>
		i2c_stop();
     760:	0e 94 bb 02 	call	0x576	; 0x576 <i2c_stop>
	   	return(1);
     764:	81 e0       	ldi	r24, 0x01	; 1
     766:	0d c0       	rjmp	.+26     	; 0x782 <EEPROM_writeByte+0x86>
	}
	
	i2c_stop();
     768:	0e 94 bb 02 	call	0x576	; 0x576 <i2c_stop>
     76c:	8f e3       	ldi	r24, 0x3F	; 63
     76e:	9c e9       	ldi	r25, 0x9C	; 156
     770:	01 97       	sbiw	r24, 0x01	; 1
     772:	f1 f7       	brne	.-4      	; 0x770 <EEPROM_writeByte+0x74>
     774:	00 c0       	rjmp	.+0      	; 0x776 <EEPROM_writeByte+0x7a>
     776:	00 00       	nop
	_delay_ms(10);
	if(page!=0) return 125;
     778:	ff 20       	and	r15, r15
     77a:	11 f0       	breq	.+4      	; 0x780 <EEPROM_writeByte+0x84>
     77c:	8d e7       	ldi	r24, 0x7D	; 125
     77e:	01 c0       	rjmp	.+2      	; 0x782 <EEPROM_writeByte+0x86>
	return(0);
     780:	80 e0       	ldi	r24, 0x00	; 0
}
     782:	0f 90       	pop	r0
     784:	cf 91       	pop	r28
     786:	df 91       	pop	r29
     788:	1f 91       	pop	r17
     78a:	0f 91       	pop	r16
     78c:	ff 90       	pop	r15
     78e:	ef 90       	pop	r14
     790:	df 90       	pop	r13
     792:	08 95       	ret

00000794 <EEPROM_writeData>:


uint8_t EEPROM_writeData( uint32_t address, uint8_t * bpData, uint8_t length, uint8_t ACK){
     794:	8f 92       	push	r8
     796:	9f 92       	push	r9
     798:	bf 92       	push	r11
     79a:	cf 92       	push	r12
     79c:	df 92       	push	r13
     79e:	ef 92       	push	r14
     7a0:	ff 92       	push	r15
     7a2:	0f 93       	push	r16
     7a4:	1f 93       	push	r17
     7a6:	cf 93       	push	r28
     7a8:	df 93       	push	r29
     7aa:	6b 01       	movw	r12, r22
     7ac:	7c 01       	movw	r14, r24
     7ae:	14 2f       	mov	r17, r20
     7b0:	b2 2e       	mov	r11, r18
	uint8_t i;
	
	for(i=0; i<length; i++)
     7b2:	84 2e       	mov	r8, r20
     7b4:	e4 01       	movw	r28, r8
     7b6:	4e 01       	movw	r8, r28
     7b8:	95 2e       	mov	r9, r21
     7ba:	e4 01       	movw	r28, r8
     7bc:	0b c0       	rjmp	.+22     	; 0x7d4 <EEPROM_writeData+0x40>
		EEPROM_writeByte(address+i, *bpData++, ACK);
     7be:	49 91       	ld	r20, Y+
     7c0:	c7 01       	movw	r24, r14
     7c2:	b6 01       	movw	r22, r12
     7c4:	20 2f       	mov	r18, r16
     7c6:	0e 94 7e 03 	call	0x6fc	; 0x6fc <EEPROM_writeByte>
     7ca:	08 94       	sec
     7cc:	c1 1c       	adc	r12, r1
     7ce:	d1 1c       	adc	r13, r1
     7d0:	e1 1c       	adc	r14, r1
     7d2:	f1 1c       	adc	r15, r1


uint8_t EEPROM_writeData( uint32_t address, uint8_t * bpData, uint8_t length, uint8_t ACK){
	uint8_t i;
	
	for(i=0; i<length; i++)
     7d4:	4e 01       	movw	r8, r28
     7d6:	81 1a       	sub	r8, r17
     7d8:	8b 14       	cp	r8, r11
     7da:	88 f3       	brcs	.-30     	; 0x7be <EEPROM_writeData+0x2a>
		EEPROM_writeByte(address+i, *bpData++, ACK);
	
	return 0;
}
     7dc:	80 e0       	ldi	r24, 0x00	; 0
     7de:	df 91       	pop	r29
     7e0:	cf 91       	pop	r28
     7e2:	1f 91       	pop	r17
     7e4:	0f 91       	pop	r16
     7e6:	ff 90       	pop	r15
     7e8:	ef 90       	pop	r14
     7ea:	df 90       	pop	r13
     7ec:	cf 90       	pop	r12
     7ee:	bf 90       	pop	r11
     7f0:	9f 90       	pop	r9
     7f2:	8f 90       	pop	r8
     7f4:	08 95       	ret

000007f6 <EEPROM_sequentialWrite>:
	
	return numOfBytes;
}


uint8_t EEPROM_sequentialWrite(uint32_t address, uint16_t numOfBytes, uint8_t * data){
     7f6:	af 92       	push	r10
     7f8:	bf 92       	push	r11
     7fa:	df 92       	push	r13
     7fc:	ef 92       	push	r14
     7fe:	ff 92       	push	r15
     800:	0f 93       	push	r16
     802:	1f 93       	push	r17
     804:	cf 93       	push	r28
     806:	df 93       	push	r29
     808:	7b 01       	movw	r14, r22
     80a:	8c 01       	movw	r16, r24
     80c:	5a 01       	movw	r10, r20
     80e:	e9 01       	movw	r28, r18
	uint8_t errorStatus, i;
	
	for(i=0;i<numOfBytes;i++){
     810:	dd 24       	eor	r13, r13
     812:	0f c0       	rjmp	.+30     	; 0x832 <EEPROM_sequentialWrite+0x3c>
		errorStatus=EEPROM_writeByte(address,data[i], AT24_BW_ACK_TYPE);
     814:	ec 0f       	add	r30, r28
     816:	fd 1f       	adc	r31, r29
     818:	c8 01       	movw	r24, r16
     81a:	b7 01       	movw	r22, r14
     81c:	40 81       	ld	r20, Z
     81e:	21 e0       	ldi	r18, 0x01	; 1
     820:	0e 94 7e 03 	call	0x6fc	; 0x6fc <EEPROM_writeByte>
		if(errorStatus){
     824:	88 23       	and	r24, r24
     826:	21 f0       	breq	.+8      	; 0x830 <EEPROM_sequentialWrite+0x3a>
			i2c_stop();
     828:	0e 94 bb 02 	call	0x576	; 0x576 <i2c_stop>
			return 1;
     82c:	81 e0       	ldi	r24, 0x01	; 1
     82e:	07 c0       	rjmp	.+14     	; 0x83e <EEPROM_sequentialWrite+0x48>


uint8_t EEPROM_sequentialWrite(uint32_t address, uint16_t numOfBytes, uint8_t * data){
	uint8_t errorStatus, i;
	
	for(i=0;i<numOfBytes;i++){
     830:	d3 94       	inc	r13
     832:	ed 2d       	mov	r30, r13
     834:	f0 e0       	ldi	r31, 0x00	; 0
     836:	ea 15       	cp	r30, r10
     838:	fb 05       	cpc	r31, r11
     83a:	60 f3       	brcs	.-40     	; 0x814 <EEPROM_sequentialWrite+0x1e>
		if(errorStatus){
			i2c_stop();
			return 1;
		}
	}
	return 0;
     83c:	80 e0       	ldi	r24, 0x00	; 0
}
     83e:	df 91       	pop	r29
     840:	cf 91       	pop	r28
     842:	1f 91       	pop	r17
     844:	0f 91       	pop	r16
     846:	ff 90       	pop	r15
     848:	ef 90       	pop	r14
     84a:	df 90       	pop	r13
     84c:	bf 90       	pop	r11
     84e:	af 90       	pop	r10
     850:	08 95       	ret

00000852 <EEPROM_readByte>:
		return 0;
	return 1;
}


uint8_t EEPROM_readByte(uint32_t address, uint8_t ACK){
     852:	ef 92       	push	r14
     854:	ff 92       	push	r15
     856:	0f 93       	push	r16
     858:	1f 93       	push	r17
     85a:	df 93       	push	r29
     85c:	cf 93       	push	r28
     85e:	0f 92       	push	r0
     860:	cd b7       	in	r28, 0x3d	; 61
     862:	de b7       	in	r29, 0x3e	; 62
     864:	16 2f       	mov	r17, r22
     866:	e4 2e       	mov	r14, r20
	page = (address>>16);
	highAddress=(address>>8);
	lowAddress=(address);
	
	slaveAddress=SLA;
	if(page!=0){	// addressing a byte inside first page
     868:	88 23       	and	r24, r24
     86a:	19 f4       	brne	.+6      	; 0x872 <EEPROM_readByte+0x20>
	uint8_t errorStatus, i, data, page, highAddress, lowAddress, slaveAddress;
	page = (address>>16);
	highAddress=(address>>8);
	lowAddress=(address);
	
	slaveAddress=SLA;
     86c:	30 ea       	ldi	r19, 0xA0	; 160
     86e:	f3 2e       	mov	r15, r19
     870:	02 c0       	rjmp	.+4      	; 0x876 <EEPROM_readByte+0x24>
	if(page!=0){	// addressing a byte inside first page
		slaveAddress += PAGE_1;
     872:	28 ea       	ldi	r18, 0xA8	; 168
     874:	f2 2e       	mov	r15, r18
	}
	if((i2c_start_address(slaveAddress+W))!=0){
     876:	8f 2d       	mov	r24, r15
     878:	79 83       	std	Y+1, r23	; 0x01
     87a:	0e 94 05 02 	call	0x40a	; 0x40a <i2c_start_address>
     87e:	79 81       	ldd	r23, Y+1	; 0x01
     880:	88 23       	and	r24, r24
     882:	f9 f4       	brne	.+62     	; 0x8c2 <EEPROM_readByte+0x70>
		i2c_stop();
		return ERROR_CODE-1; // returns 125 if encounters an error
	}
	
	
	errorStatus |= i2c_sendData_ACK(highAddress);
     884:	87 2f       	mov	r24, r23
     886:	0e 94 70 02 	call	0x4e0	; 0x4e0 <i2c_sendData_ACK>
     88a:	08 2f       	mov	r16, r24
	errorStatus |= i2c_sendData_ACK(lowAddress);
     88c:	81 2f       	mov	r24, r17
     88e:	0e 94 70 02 	call	0x4e0	; 0x4e0 <i2c_sendData_ACK>
     892:	08 2b       	or	r16, r24
	
	errorStatus |= i2c_repeatStart();
     894:	0e 94 2a 02 	call	0x454	; 0x454 <i2c_repeatStart>
     898:	08 2b       	or	r16, r24
	errorStatus |= i2c_sendAddress_ACK(slaveAddress+R);
     89a:	8f 2d       	mov	r24, r15
     89c:	8f 5f       	subi	r24, 0xFF	; 255
     89e:	0e 94 39 02 	call	0x472	; 0x472 <i2c_sendAddress_ACK>
     8a2:	80 2b       	or	r24, r16
	
	
	if(errorStatus==1){
     8a4:	81 30       	cpi	r24, 0x01	; 1
     8a6:	21 f4       	brne	.+8      	; 0x8b0 <EEPROM_readByte+0x5e>
		i2c_stop();
     8a8:	0e 94 bb 02 	call	0x576	; 0x576 <i2c_stop>
		return ERROR_CODE+1;
     8ac:	88 ed       	ldi	r24, 0xD8	; 216
     8ae:	11 c0       	rjmp	.+34     	; 0x8d2 <EEPROM_readByte+0x80>
	}
	
	
	if(ACK)
     8b0:	ee 20       	and	r14, r14
     8b2:	19 f0       	breq	.+6      	; 0x8ba <EEPROM_readByte+0x68>
		data = i2c_receiveData_ACK();
     8b4:	0e 94 99 02 	call	0x532	; 0x532 <i2c_receiveData_ACK>
     8b8:	02 c0       	rjmp	.+4      	; 0x8be <EEPROM_readByte+0x6c>
	else
		data = i2c_receiveData_NACK();
     8ba:	0e 94 aa 02 	call	0x554	; 0x554 <i2c_receiveData_NACK>
	
	if(data == ERROR_CODE){
     8be:	87 3d       	cpi	r24, 0xD7	; 215
     8c0:	21 f4       	brne	.+8      	; 0x8ca <EEPROM_readByte+0x78>
		i2c_stop();
     8c2:	0e 94 bb 02 	call	0x576	; 0x576 <i2c_stop>
	   	return ERROR_CODE-1;
     8c6:	86 ed       	ldi	r24, 0xD6	; 214
     8c8:	04 c0       	rjmp	.+8      	; 0x8d2 <EEPROM_readByte+0x80>
	}
	i2c_stop();
     8ca:	89 83       	std	Y+1, r24	; 0x01
     8cc:	0e 94 bb 02 	call	0x576	; 0x576 <i2c_stop>
     8d0:	89 81       	ldd	r24, Y+1	; 0x01
	return data;
}
     8d2:	0f 90       	pop	r0
     8d4:	cf 91       	pop	r28
     8d6:	df 91       	pop	r29
     8d8:	1f 91       	pop	r17
     8da:	0f 91       	pop	r16
     8dc:	ff 90       	pop	r15
     8de:	ef 90       	pop	r14
     8e0:	08 95       	ret

000008e2 <EEPROM_readData>:
	return 0;
}



uint8_t EEPROM_readData( uint32_t address, uint8_t * bpData, uint8_t length, uint8_t ACK ){	// occhio: avrgcc salva i float in little endian
     8e2:	af 92       	push	r10
     8e4:	bf 92       	push	r11
     8e6:	cf 92       	push	r12
     8e8:	df 92       	push	r13
     8ea:	ef 92       	push	r14
     8ec:	ff 92       	push	r15
     8ee:	0f 93       	push	r16
     8f0:	1f 93       	push	r17
     8f2:	df 93       	push	r29
     8f4:	cf 93       	push	r28
     8f6:	0f 92       	push	r0
     8f8:	cd b7       	in	r28, 0x3d	; 61
     8fa:	de b7       	in	r29, 0x3e	; 62
     8fc:	6b 01       	movw	r12, r22
     8fe:	7c 01       	movw	r14, r24
     900:	14 2f       	mov	r17, r20
	uint8_t i;
	
	for(i=0; i<length; i++){
     902:	64 2f       	mov	r22, r20
     904:	75 2f       	mov	r23, r21
     906:	5b 01       	movw	r10, r22
     908:	0f c0       	rjmp	.+30     	; 0x928 <__stack+0x29>
		bpData[i] = EEPROM_readByte(address+i, ACK);
     90a:	c7 01       	movw	r24, r14
     90c:	b6 01       	movw	r22, r12
     90e:	40 2f       	mov	r20, r16
     910:	29 83       	std	Y+1, r18	; 0x01
     912:	0e 94 29 04 	call	0x852	; 0x852 <EEPROM_readByte>
     916:	f5 01       	movw	r30, r10
     918:	81 93       	st	Z+, r24
     91a:	5f 01       	movw	r10, r30
     91c:	08 94       	sec
     91e:	c1 1c       	adc	r12, r1
     920:	d1 1c       	adc	r13, r1
     922:	e1 1c       	adc	r14, r1
     924:	f1 1c       	adc	r15, r1
     926:	29 81       	ldd	r18, Y+1	; 0x01


uint8_t EEPROM_readData( uint32_t address, uint8_t * bpData, uint8_t length, uint8_t ACK ){	// occhio: avrgcc salva i float in little endian
	uint8_t i;
	
	for(i=0; i<length; i++){
     928:	8a 2d       	mov	r24, r10
     92a:	81 1b       	sub	r24, r17
     92c:	82 17       	cp	r24, r18
     92e:	68 f3       	brcs	.-38     	; 0x90a <__stack+0xb>
		bpData[i] = EEPROM_readByte(address+i, ACK);
	}
	
	return length;
}
     930:	82 2f       	mov	r24, r18
     932:	0f 90       	pop	r0
     934:	cf 91       	pop	r28
     936:	df 91       	pop	r29
     938:	1f 91       	pop	r17
     93a:	0f 91       	pop	r16
     93c:	ff 90       	pop	r15
     93e:	ef 90       	pop	r14
     940:	df 90       	pop	r13
     942:	cf 90       	pop	r12
     944:	bf 90       	pop	r11
     946:	af 90       	pop	r10
     948:	08 95       	ret

0000094a <__vector_8>:
	bPriLev = bOldPriLev;
}


/*************************** Timer2 Interrupt / Backlight *****************************/
ISR(TIMER2_COMPB_vect){			// Timer2 : 8 bit
     94a:	1f 92       	push	r1
     94c:	0f 92       	push	r0
     94e:	0f b6       	in	r0, 0x3f	; 63
     950:	0f 92       	push	r0
     952:	11 24       	eor	r1, r1
     954:	2f 93       	push	r18
     956:	3f 93       	push	r19
     958:	8f 93       	push	r24
     95a:	9f 93       	push	r25
	if(bPriLev<PRI_TIMER2) return;
     95c:	80 91 cd 02 	lds	r24, 0x02CD
     960:	83 30       	cpi	r24, 0x03	; 3
     962:	20 f1       	brcs	.+72     	; 0x9ac <__vector_8+0x62>
	byte bOldPriLev = bPriLev;
     964:	20 91 cd 02 	lds	r18, 0x02CD
	
	if(bBacklightActive) return;
     968:	80 91 92 02 	lds	r24, 0x0292
     96c:	88 23       	and	r24, r24
     96e:	f1 f4       	brne	.+60     	; 0x9ac <__vector_8+0x62>
	
	if(wBacklightCounter<BACKLIGHT_TIME){ wBacklightCounter++; return; }
     970:	80 91 a9 02 	lds	r24, 0x02A9
     974:	90 91 aa 02 	lds	r25, 0x02AA
     978:	33 e0       	ldi	r19, 0x03	; 3
     97a:	80 32       	cpi	r24, 0x20	; 32
     97c:	93 07       	cpc	r25, r19
     97e:	50 f4       	brcc	.+20     	; 0x994 <__vector_8+0x4a>
     980:	80 91 a9 02 	lds	r24, 0x02A9
     984:	90 91 aa 02 	lds	r25, 0x02AA
     988:	01 96       	adiw	r24, 0x01	; 1
     98a:	90 93 aa 02 	sts	0x02AA, r25
     98e:	80 93 a9 02 	sts	0x02A9, r24
     992:	0c c0       	rjmp	.+24     	; 0x9ac <__vector_8+0x62>
	wBacklightCounter=0;
     994:	10 92 aa 02 	sts	0x02AA, r1
     998:	10 92 a9 02 	sts	0x02A9, r1
	STOP_BACKLIGHT();
     99c:	5e 98       	cbi	0x0b, 6	; 11
     99e:	80 91 b1 00 	lds	r24, 0x00B1
     9a2:	88 7f       	andi	r24, 0xF8	; 248
     9a4:	80 93 b1 00 	sts	0x00B1, r24
	
	bPriLev = bOldPriLev;
     9a8:	20 93 cd 02 	sts	0x02CD, r18
}
     9ac:	9f 91       	pop	r25
     9ae:	8f 91       	pop	r24
     9b0:	3f 91       	pop	r19
     9b2:	2f 91       	pop	r18
     9b4:	0f 90       	pop	r0
     9b6:	0f be       	out	0x3f, r0	; 63
     9b8:	0f 90       	pop	r0
     9ba:	1f 90       	pop	r1
     9bc:	18 95       	reti

000009be <init_ADC>:

/*******************************************************************/
/*******************************************************************/

void init_ADC(void){
	ADCSRA = ADC_PRESCALER_VALUE;					// ADC Prescaler = Fck/128
     9be:	ea e7       	ldi	r30, 0x7A	; 122
     9c0:	f0 e0       	ldi	r31, 0x00	; 0
     9c2:	87 e0       	ldi	r24, 0x07	; 7
     9c4:	80 83       	st	Z, r24
	ADCSRA |= (1<<ADIE);							// enabling ADC Interrupt
     9c6:	80 81       	ld	r24, Z
     9c8:	88 60       	ori	r24, 0x08	; 8
     9ca:	80 83       	st	Z, r24
	ADC_SET_TEMPERATURE_CHANNEL();					// let's start with temperature
     9cc:	81 e0       	ldi	r24, 0x01	; 1
     9ce:	80 93 7c 00 	sts	0x007C, r24
	bChannel = ADC_TEMPERATURE_CHANNEL;
     9d2:	80 93 f5 02 	sts	0x02F5, r24
}
     9d6:	08 95       	ret

000009d8 <init_LCD>:

void init_LCD(uint8_t bPowerUp){
	if(bPowerUp) InitLCD(0);
     9d8:	88 23       	and	r24, r24
     9da:	19 f0       	breq	.+6      	; 0x9e2 <init_LCD+0xa>
     9dc:	80 e0       	ldi	r24, 0x00	; 0
     9de:	0e 94 30 01 	call	0x260	; 0x260 <InitLCD>
	LCDClear();
     9e2:	81 e0       	ldi	r24, 0x01	; 1
     9e4:	60 e0       	ldi	r22, 0x00	; 0
     9e6:	0e 94 04 01 	call	0x208	; 0x208 <LCDByte>
	LCDWriteStringXY(CLOCK_CURSOR_POSITION,0,"00:00");
     9ea:	8b e0       	ldi	r24, 0x0B	; 11
     9ec:	60 e0       	ldi	r22, 0x00	; 0
     9ee:	40 e0       	ldi	r20, 0x00	; 0
     9f0:	51 e0       	ldi	r21, 0x01	; 1
     9f2:	0e 94 d8 01 	call	0x3b0	; 0x3b0 <LCDWriteStringXY>
	LCDWriteStringXY(TEMP_CURSOR_POSITION,1,"00.0");
     9f6:	80 e0       	ldi	r24, 0x00	; 0
     9f8:	61 e0       	ldi	r22, 0x01	; 1
     9fa:	46 e0       	ldi	r20, 0x06	; 6
     9fc:	51 e0       	ldi	r21, 0x01	; 1
     9fe:	0e 94 d8 01 	call	0x3b0	; 0x3b0 <LCDWriteStringXY>
	LCDByte(0b11011111, 1);		// Scrive il carattere : dalla tabella 4 del datasheet HD44780.pdf vediamo che il carattere ? 11011111;
     a02:	8f ed       	ldi	r24, 0xDF	; 223
     a04:	61 e0       	ldi	r22, 0x01	; 1
     a06:	0e 94 04 01 	call	0x208	; 0x208 <LCDByte>
								// lo mandiamo come byte (LCDByte()) sapendo che dobbiamo mettere RS a 1 (dato!)
	LCDWriteStringXY(TEMP_CURSOR_POSITION+5, 1, "C,");
     a0a:	85 e0       	ldi	r24, 0x05	; 5
     a0c:	61 e0       	ldi	r22, 0x01	; 1
     a0e:	4b e0       	ldi	r20, 0x0B	; 11
     a10:	51 e0       	ldi	r21, 0x01	; 1
     a12:	0e 94 d8 01 	call	0x3b0	; 0x3b0 <LCDWriteStringXY>
	LCDWriteStringXY(HUM_CURSOR_POSITION-3, 1, "RH=88.8%");
     a16:	88 e0       	ldi	r24, 0x08	; 8
     a18:	61 e0       	ldi	r22, 0x01	; 1
     a1a:	4e e0       	ldi	r20, 0x0E	; 14
     a1c:	51 e0       	ldi	r21, 0x01	; 1
     a1e:	0e 94 d8 01 	call	0x3b0	; 0x3b0 <LCDWriteStringXY>

}
     a22:	08 95       	ret

00000a24 <init_TIMER0_B>:

/*
	OCCHIO: Timer0_A e Timer0_B condividono lo stesso prescaler, il cui valore va assegnato sul registro TCCR0B
*/
void init_TIMER0_B(void){
	TCCR0B |= (1<<CS02)|(1<<CS00);			// clock: F_CPU / 1024
     a24:	85 b5       	in	r24, 0x25	; 37
     a26:	85 60       	ori	r24, 0x05	; 5
     a28:	85 bd       	out	0x25, r24	; 37
	TCCR0A |= (1<<WGM01);					// Clear Timer on Compare
     a2a:	84 b5       	in	r24, 0x24	; 36
     a2c:	82 60       	ori	r24, 0x02	; 2
     a2e:	84 bd       	out	0x24, r24	; 36
	TIMSK0 |= (1<<OCIE0B);					// Output compare match interrupt enable
     a30:	ee e6       	ldi	r30, 0x6E	; 110
     a32:	f0 e0       	ldi	r31, 0x00	; 0
     a34:	80 81       	ld	r24, Z
     a36:	84 60       	ori	r24, 0x04	; 4
     a38:	80 83       	st	Z, r24
	OCR0A = 156;							// Interrupt every 10ms
     a3a:	8c e9       	ldi	r24, 0x9C	; 156
     a3c:	87 bd       	out	0x27, r24	; 39
}
     a3e:	08 95       	ret

00000a40 <init_TIMER2_B>:


void init_TIMER2_B(void){
	TCCR2A |= (1<<WGM21);
     a40:	e0 eb       	ldi	r30, 0xB0	; 176
     a42:	f0 e0       	ldi	r31, 0x00	; 0
     a44:	80 81       	ld	r24, Z
     a46:	82 60       	ori	r24, 0x02	; 2
     a48:	80 83       	st	Z, r24
	TIMSK2 |= (1<<OCIE2B);
     a4a:	e0 e7       	ldi	r30, 0x70	; 112
     a4c:	f0 e0       	ldi	r31, 0x00	; 0
     a4e:	80 81       	ld	r24, Z
     a50:	84 60       	ori	r24, 0x04	; 4
     a52:	80 83       	st	Z, r24
	OCR2A = 156;
     a54:	8c e9       	ldi	r24, 0x9C	; 156
     a56:	80 93 b3 00 	sts	0x00B3, r24
}
     a5a:	08 95       	ret

00000a5c <_init_AVR>:


void _init_AVR(void){
	bDateChanged = 1;
     a5c:	81 e0       	ldi	r24, 0x01	; 1
     a5e:	80 93 bd 02 	sts	0x02BD, r24
	bPrintQuotes = 1;
     a62:	80 93 cf 02 	sts	0x02CF, r24
	
	/******************* Pin Configuration ***********************/
	BACKLIGHT_PORT_DDR |= BACKLIGHT_PIN;				// PORTD.6 = output (backlight)
     a66:	56 9a       	sbi	0x0a, 6	; 10
	
	BUTTON_PORT = BUTTON_A+BUTTON_B+BUTTON_C;		// pins 2,3,4 of BUTTON_PORT (portD) are pulled high
     a68:	8c e1       	ldi	r24, 0x1C	; 28
     a6a:	8b b9       	out	0x0b, r24	; 11
	
	
	EEPROM_open();
     a6c:	0e 94 e3 01 	call	0x3c6	; 0x3c6 <EEPROM_open>
	init_ADC();
     a70:	0e 94 df 04 	call	0x9be	; 0x9be <init_ADC>
	init_LCD(1);	// Initialize the LCD while powering it up.
     a74:	81 e0       	ldi	r24, 0x01	; 1
     a76:	0e 94 ec 04 	call	0x9d8	; 0x9d8 <init_LCD>
	init_TIMER0_B();
     a7a:	0e 94 12 05 	call	0xa24	; 0xa24 <init_TIMER0_B>
	init_TIMER2_B();
     a7e:	0e 94 20 05 	call	0xa40	; 0xa40 <init_TIMER2_B>
	sei();						// SEt Interrupts: let's start!
     a82:	78 94       	sei
}
     a84:	08 95       	ret

00000a86 <getTemperature>:

float getTemperature(){
	float temp;
	
	fVadc1 = ADC * VREF/1024;
     a86:	60 91 78 00 	lds	r22, 0x0078
     a8a:	70 91 79 00 	lds	r23, 0x0079
     a8e:	80 e0       	ldi	r24, 0x00	; 0
     a90:	90 e0       	ldi	r25, 0x00	; 0
     a92:	0e 94 66 19 	call	0x32cc	; 0x32cc <__floatunsisf>
     a96:	20 e0       	ldi	r18, 0x00	; 0
     a98:	30 e0       	ldi	r19, 0x00	; 0
     a9a:	40 ea       	ldi	r20, 0xA0	; 160
     a9c:	50 e4       	ldi	r21, 0x40	; 64
     a9e:	0e 94 1c 1a 	call	0x3438	; 0x3438 <__mulsf3>
     aa2:	20 e0       	ldi	r18, 0x00	; 0
     aa4:	30 e0       	ldi	r19, 0x00	; 0
     aa6:	40 e8       	ldi	r20, 0x80	; 128
     aa8:	5a e3       	ldi	r21, 0x3A	; 58
     aaa:	0e 94 1c 1a 	call	0x3438	; 0x3438 <__mulsf3>
     aae:	9b 01       	movw	r18, r22
     ab0:	ac 01       	movw	r20, r24
     ab2:	20 93 04 03 	sts	0x0304, r18
     ab6:	30 93 05 03 	sts	0x0305, r19
     aba:	40 93 06 03 	sts	0x0306, r20
     abe:	50 93 07 03 	sts	0x0307, r21
	temp = fVadc1 / TEMP_SENSOR_GAIN;
     ac2:	60 91 04 03 	lds	r22, 0x0304
     ac6:	70 91 05 03 	lds	r23, 0x0305
     aca:	80 91 06 03 	lds	r24, 0x0306
     ace:	90 91 07 03 	lds	r25, 0x0307
     ad2:	2a e0       	ldi	r18, 0x0A	; 10
     ad4:	37 ed       	ldi	r19, 0xD7	; 215
     ad6:	43 e2       	ldi	r20, 0x23	; 35
     ad8:	5c e3       	ldi	r21, 0x3C	; 60
     ada:	0e 94 cd 18 	call	0x319a	; 0x319a <__divsf3>
	
	return temp;
}
     ade:	08 95       	ret

00000ae0 <getHumidity>:

float getHumidity(float temperature){
     ae0:	af 92       	push	r10
     ae2:	bf 92       	push	r11
     ae4:	cf 92       	push	r12
     ae6:	df 92       	push	r13
     ae8:	ef 92       	push	r14
     aea:	ff 92       	push	r15
     aec:	0f 93       	push	r16
     aee:	1f 93       	push	r17
     af0:	7b 01       	movw	r14, r22
     af2:	8c 01       	movw	r16, r24
	//float fVadc0
	//float fRH
	//float fRH_comp
	
	fVadc0 = ADC * VREF/1024;
     af4:	60 91 78 00 	lds	r22, 0x0078
     af8:	70 91 79 00 	lds	r23, 0x0079
     afc:	80 e0       	ldi	r24, 0x00	; 0
     afe:	90 e0       	ldi	r25, 0x00	; 0
     b00:	0e 94 66 19 	call	0x32cc	; 0x32cc <__floatunsisf>
     b04:	20 e0       	ldi	r18, 0x00	; 0
     b06:	30 e0       	ldi	r19, 0x00	; 0
     b08:	40 ea       	ldi	r20, 0xA0	; 160
     b0a:	50 e4       	ldi	r21, 0x40	; 64
     b0c:	0e 94 1c 1a 	call	0x3438	; 0x3438 <__mulsf3>
     b10:	20 e0       	ldi	r18, 0x00	; 0
     b12:	30 e0       	ldi	r19, 0x00	; 0
     b14:	40 e8       	ldi	r20, 0x80	; 128
     b16:	5a e3       	ldi	r21, 0x3A	; 58
     b18:	0e 94 1c 1a 	call	0x3438	; 0x3438 <__mulsf3>
     b1c:	9b 01       	movw	r18, r22
     b1e:	ac 01       	movw	r20, r24
     b20:	20 93 dc 02 	sts	0x02DC, r18
     b24:	30 93 dd 02 	sts	0x02DD, r19
     b28:	40 93 de 02 	sts	0x02DE, r20
     b2c:	50 93 df 02 	sts	0x02DF, r21
	fRH = (fVadc0/VREF - 0.16) / 0.0062;					// Formulas given by the datasheet of HIH-4030
     b30:	60 91 dc 02 	lds	r22, 0x02DC
     b34:	70 91 dd 02 	lds	r23, 0x02DD
     b38:	80 91 de 02 	lds	r24, 0x02DE
     b3c:	90 91 df 02 	lds	r25, 0x02DF
     b40:	20 e0       	ldi	r18, 0x00	; 0
     b42:	30 e0       	ldi	r19, 0x00	; 0
     b44:	40 ea       	ldi	r20, 0xA0	; 160
     b46:	50 e4       	ldi	r21, 0x40	; 64
     b48:	0e 94 cd 18 	call	0x319a	; 0x319a <__divsf3>
     b4c:	2a e0       	ldi	r18, 0x0A	; 10
     b4e:	37 ed       	ldi	r19, 0xD7	; 215
     b50:	43 e2       	ldi	r20, 0x23	; 35
     b52:	5e e3       	ldi	r21, 0x3E	; 62
     b54:	0e 94 64 18 	call	0x30c8	; 0x30c8 <__subsf3>
     b58:	2f e5       	ldi	r18, 0x5F	; 95
     b5a:	39 e2       	ldi	r19, 0x29	; 41
     b5c:	4b ec       	ldi	r20, 0xCB	; 203
     b5e:	5b e3       	ldi	r21, 0x3B	; 59
     b60:	0e 94 cd 18 	call	0x319a	; 0x319a <__divsf3>
     b64:	9b 01       	movw	r18, r22
     b66:	ac 01       	movw	r20, r24
     b68:	20 93 c0 02 	sts	0x02C0, r18
     b6c:	30 93 c1 02 	sts	0x02C1, r19
     b70:	40 93 c2 02 	sts	0x02C2, r20
     b74:	50 93 c3 02 	sts	0x02C3, r21
	fRH_comp = fRH/(1.0546-0.00216*temperature);			//
     b78:	a0 90 c0 02 	lds	r10, 0x02C0
     b7c:	b0 90 c1 02 	lds	r11, 0x02C1
     b80:	c0 90 c2 02 	lds	r12, 0x02C2
     b84:	d0 90 c3 02 	lds	r13, 0x02C3
     b88:	c8 01       	movw	r24, r16
     b8a:	b7 01       	movw	r22, r14
     b8c:	29 ec       	ldi	r18, 0xC9	; 201
     b8e:	3e e8       	ldi	r19, 0x8E	; 142
     b90:	4d e0       	ldi	r20, 0x0D	; 13
     b92:	5b e3       	ldi	r21, 0x3B	; 59
     b94:	0e 94 1c 1a 	call	0x3438	; 0x3438 <__mulsf3>
     b98:	9b 01       	movw	r18, r22
     b9a:	ac 01       	movw	r20, r24
     b9c:	62 e2       	ldi	r22, 0x22	; 34
     b9e:	7d ef       	ldi	r23, 0xFD	; 253
     ba0:	86 e8       	ldi	r24, 0x86	; 134
     ba2:	9f e3       	ldi	r25, 0x3F	; 63
     ba4:	0e 94 64 18 	call	0x30c8	; 0x30c8 <__subsf3>
     ba8:	9b 01       	movw	r18, r22
     baa:	ac 01       	movw	r20, r24
     bac:	c6 01       	movw	r24, r12
     bae:	b5 01       	movw	r22, r10
     bb0:	0e 94 cd 18 	call	0x319a	; 0x319a <__divsf3>
     bb4:	9b 01       	movw	r18, r22
     bb6:	ac 01       	movw	r20, r24
     bb8:	20 93 a3 02 	sts	0x02A3, r18
     bbc:	30 93 a4 02 	sts	0x02A4, r19
     bc0:	40 93 a5 02 	sts	0x02A5, r20
     bc4:	50 93 a6 02 	sts	0x02A6, r21
	
	return fRH_comp;
     bc8:	80 91 a3 02 	lds	r24, 0x02A3
     bcc:	90 91 a4 02 	lds	r25, 0x02A4
     bd0:	a0 91 a5 02 	lds	r26, 0x02A5
     bd4:	b0 91 a6 02 	lds	r27, 0x02A6
}
     bd8:	68 2f       	mov	r22, r24
     bda:	79 2f       	mov	r23, r25
     bdc:	8a 2f       	mov	r24, r26
     bde:	9b 2f       	mov	r25, r27
     be0:	1f 91       	pop	r17
     be2:	0f 91       	pop	r16
     be4:	ff 90       	pop	r15
     be6:	ef 90       	pop	r14
     be8:	df 90       	pop	r13
     bea:	cf 90       	pop	r12
     bec:	bf 90       	pop	r11
     bee:	af 90       	pop	r10
     bf0:	08 95       	ret

00000bf2 <__vector_21>:
	bPriLev = bOldPriLev;
}


/****************************  ADC Interrupt ******************************/
ISR(ADC_vect){
     bf2:	1f 92       	push	r1
     bf4:	0f 92       	push	r0
     bf6:	0f b6       	in	r0, 0x3f	; 63
     bf8:	0f 92       	push	r0
     bfa:	11 24       	eor	r1, r1
     bfc:	bf 92       	push	r11
     bfe:	cf 92       	push	r12
     c00:	df 92       	push	r13
     c02:	ef 92       	push	r14
     c04:	ff 92       	push	r15
     c06:	0f 93       	push	r16
     c08:	1f 93       	push	r17
     c0a:	2f 93       	push	r18
     c0c:	3f 93       	push	r19
     c0e:	4f 93       	push	r20
     c10:	5f 93       	push	r21
     c12:	6f 93       	push	r22
     c14:	7f 93       	push	r23
     c16:	8f 93       	push	r24
     c18:	9f 93       	push	r25
     c1a:	af 93       	push	r26
     c1c:	bf 93       	push	r27
     c1e:	ef 93       	push	r30
     c20:	ff 93       	push	r31
	if(bPriLev<PRI_ADC){
     c22:	80 91 cd 02 	lds	r24, 0x02CD
     c26:	82 30       	cpi	r24, 0x02	; 2
     c28:	58 f4       	brcc	.+22     	; 0xc40 <__vector_21+0x4e>
			// exploit: bYetToSample mi ricorda che questo campionamento non  avvenuto, e
			// appena lo scopro eseguo una nuova lettura dell'ADC.
			/*--> Soluzione alternativa: rendere questa routine non interrompibile */
			
			// forse basta risettare ADIF, dato che viene settata a 0 dall'hw una volta che la routine  chiamata 
			ADCSRA |= 1<<ADIF;
     c2a:	80 91 7a 00 	lds	r24, 0x007A
     c2e:	80 61       	ori	r24, 0x10	; 16
     c30:	80 93 7a 00 	sts	0x007A, r24
			isrStolen++;
     c34:	80 91 f6 02 	lds	r24, 0x02F6
     c38:	8f 5f       	subi	r24, 0xFF	; 255
     c3a:	80 93 f6 02 	sts	0x02F6, r24
			
		return;
     c3e:	7e c0       	rjmp	.+252    	; 0xd3c <__vector_21+0x14a>
	}
	
	sreg = MCUSR;	// float operations: avoid interrupts to make operations reliable
     c40:	84 b7       	in	r24, 0x34	; 52
     c42:	80 93 03 03 	sts	0x0303, r24
	cli();
     c46:	f8 94       	cli
	
	byte bOldPriLev = bPriLev;
     c48:	b0 90 cd 02 	lds	r11, 0x02CD
	
	
	if(bFirstConversion){
     c4c:	80 91 e2 01 	lds	r24, 0x01E2
     c50:	88 23       	and	r24, r24
     c52:	41 f0       	breq	.+16     	; 0xc64 <__vector_21+0x72>
		bFirstConversion=0;
     c54:	10 92 e2 01 	sts	0x01E2, r1
		ADCSRA |= 1<<ADSC;		// imposto l'adc perch faccia la seconda campionatura
     c58:	80 91 7a 00 	lds	r24, 0x007A
     c5c:	80 64       	ori	r24, 0x40	; 64
     c5e:	80 93 7a 00 	sts	0x007A, r24
		return;					// mentre la prima viene scartata
     c62:	6c c0       	rjmp	.+216    	; 0xd3c <__vector_21+0x14a>
	}
	
	
	float fTemperatureOld;
	float fHumidityOld;
	switch(bChannel){
     c64:	10 91 f5 02 	lds	r17, 0x02F5
     c68:	11 23       	and	r17, r17
     c6a:	81 f1       	breq	.+96     	; 0xccc <__vector_21+0xda>
     c6c:	11 30       	cpi	r17, 0x01	; 1
     c6e:	09 f0       	breq	.+2      	; 0xc72 <__vector_21+0x80>
     c70:	5f c0       	rjmp	.+190    	; 0xd30 <__vector_21+0x13e>
		case ADC_TEMPERATURE_CHANNEL:
			
			fTemperatureOld = fTemperature;
     c72:	c0 90 93 02 	lds	r12, 0x0293
     c76:	d0 90 94 02 	lds	r13, 0x0294
     c7a:	e0 90 95 02 	lds	r14, 0x0295
     c7e:	f0 90 96 02 	lds	r15, 0x0296
			fTemperature = getTemperature();
     c82:	0e 94 43 05 	call	0xa86	; 0xa86 <getTemperature>
     c86:	60 93 93 02 	sts	0x0293, r22
     c8a:	70 93 94 02 	sts	0x0294, r23
     c8e:	80 93 95 02 	sts	0x0295, r24
     c92:	90 93 96 02 	sts	0x0296, r25
			if(fTemperatureOld != fTemperature) bTempChanged=1;
     c96:	20 91 93 02 	lds	r18, 0x0293
     c9a:	30 91 94 02 	lds	r19, 0x0294
     c9e:	40 91 95 02 	lds	r20, 0x0295
     ca2:	50 91 96 02 	lds	r21, 0x0296
     ca6:	c7 01       	movw	r24, r14
     ca8:	b6 01       	movw	r22, r12
     caa:	0e 94 c9 18 	call	0x3192	; 0x3192 <__cmpsf2>
     cae:	88 23       	and	r24, r24
     cb0:	11 f0       	breq	.+4      	; 0xcb6 <__vector_21+0xc4>
     cb2:	10 93 be 02 	sts	0x02BE, r17
			
			ADCSRA |= 1<<ADSC;
     cb6:	80 91 7a 00 	lds	r24, 0x007A
     cba:	80 64       	ori	r24, 0x40	; 64
     cbc:	80 93 7a 00 	sts	0x007A, r24
			
			ADC_SET_HUMIDITY_CHANNEL();
     cc0:	10 92 7c 00 	sts	0x007C, r1
			bChannel = ADC_HUMIDITY_CHANNEL;
     cc4:	10 92 f5 02 	sts	0x02F5, r1
			bFirstConversion=1;
     cc8:	81 e0       	ldi	r24, 0x01	; 1
     cca:	30 c0       	rjmp	.+96     	; 0xd2c <__vector_21+0x13a>
			break;
			
		case ADC_HUMIDITY_CHANNEL:
			
			fHumidityOld = fHumidity;
     ccc:	e0 90 97 02 	lds	r14, 0x0297
     cd0:	f0 90 98 02 	lds	r15, 0x0298
     cd4:	00 91 99 02 	lds	r16, 0x0299
     cd8:	10 91 9a 02 	lds	r17, 0x029A
			fHumidity = getHumidity(fTemperature);
     cdc:	60 91 93 02 	lds	r22, 0x0293
     ce0:	70 91 94 02 	lds	r23, 0x0294
     ce4:	80 91 95 02 	lds	r24, 0x0295
     ce8:	90 91 96 02 	lds	r25, 0x0296
     cec:	0e 94 70 05 	call	0xae0	; 0xae0 <getHumidity>
     cf0:	60 93 97 02 	sts	0x0297, r22
     cf4:	70 93 98 02 	sts	0x0298, r23
     cf8:	80 93 99 02 	sts	0x0299, r24
     cfc:	90 93 9a 02 	sts	0x029A, r25
			if(fHumidityOld != fHumidity) bHumChanged=1;
     d00:	20 91 97 02 	lds	r18, 0x0297
     d04:	30 91 98 02 	lds	r19, 0x0298
     d08:	40 91 99 02 	lds	r20, 0x0299
     d0c:	50 91 9a 02 	lds	r21, 0x029A
     d10:	c8 01       	movw	r24, r16
     d12:	b7 01       	movw	r22, r14
     d14:	0e 94 c9 18 	call	0x3192	; 0x3192 <__cmpsf2>
     d18:	88 23       	and	r24, r24
     d1a:	19 f0       	breq	.+6      	; 0xd22 <__vector_21+0x130>
     d1c:	81 e0       	ldi	r24, 0x01	; 1
     d1e:	80 93 bc 02 	sts	0x02BC, r24
			
			ADC_SET_TEMPERATURE_CHANNEL();
     d22:	81 e0       	ldi	r24, 0x01	; 1
     d24:	80 93 7c 00 	sts	0x007C, r24
			bChannel = ADC_TEMPERATURE_CHANNEL;
     d28:	80 93 f5 02 	sts	0x02F5, r24
			bFirstConversion=1;
     d2c:	80 93 e2 01 	sts	0x01E2, r24
		
		default: break;
		
	}
	
	sei();
     d30:	78 94       	sei
	MCUSR=sreg;
     d32:	80 91 03 03 	lds	r24, 0x0303
     d36:	84 bf       	out	0x34, r24	; 52
	
	bPriLev = bOldPriLev;
     d38:	b0 92 cd 02 	sts	0x02CD, r11
}
     d3c:	ff 91       	pop	r31
     d3e:	ef 91       	pop	r30
     d40:	bf 91       	pop	r27
     d42:	af 91       	pop	r26
     d44:	9f 91       	pop	r25
     d46:	8f 91       	pop	r24
     d48:	7f 91       	pop	r23
     d4a:	6f 91       	pop	r22
     d4c:	5f 91       	pop	r21
     d4e:	4f 91       	pop	r20
     d50:	3f 91       	pop	r19
     d52:	2f 91       	pop	r18
     d54:	1f 91       	pop	r17
     d56:	0f 91       	pop	r16
     d58:	ff 90       	pop	r15
     d5a:	ef 90       	pop	r14
     d5c:	df 90       	pop	r13
     d5e:	cf 90       	pop	r12
     d60:	bf 90       	pop	r11
     d62:	0f 90       	pop	r0
     d64:	0f be       	out	0x3f, r0	; 63
     d66:	0f 90       	pop	r0
     d68:	1f 90       	pop	r1
     d6a:	18 95       	reti

00000d6c <refreshQuote>:
	fRH_comp = fRH/(1.0546-0.00216*temperature);			//
	
	return fRH_comp;
}

void refreshQuote(){
     d6c:	0f 93       	push	r16
     d6e:	1f 93       	push	r17
     d70:	cf 93       	push	r28
     d72:	df 93       	push	r29
	if(bDateChanged){
     d74:	80 91 bd 02 	lds	r24, 0x02BD
     d78:	88 23       	and	r24, r24
     d7a:	a1 f1       	breq	.+104    	; 0xde4 <refreshQuote+0x78>
		bDateChanged=0;
     d7c:	10 92 bd 02 	sts	0x02BD, r1
		sprintf(str, "%02d/%02d/%02d,", tTime.bDay, tTime.bMonth, tTime.bYear);
     d80:	40 91 ca 02 	lds	r20, 0x02CA
     d84:	30 91 cb 02 	lds	r19, 0x02CB
     d88:	20 91 cc 02 	lds	r18, 0x02CC
     d8c:	8d b7       	in	r24, 0x3d	; 61
     d8e:	9e b7       	in	r25, 0x3e	; 62
     d90:	0a 97       	sbiw	r24, 0x0a	; 10
     d92:	0f b6       	in	r0, 0x3f	; 63
     d94:	f8 94       	cli
     d96:	9e bf       	out	0x3e, r25	; 62
     d98:	0f be       	out	0x3f, r0	; 63
     d9a:	8d bf       	out	0x3d, r24	; 61
     d9c:	ed b7       	in	r30, 0x3d	; 61
     d9e:	fe b7       	in	r31, 0x3e	; 62
     da0:	31 96       	adiw	r30, 0x01	; 1
     da2:	c3 ee       	ldi	r28, 0xE3	; 227
     da4:	d1 e0       	ldi	r29, 0x01	; 1
     da6:	ad b7       	in	r26, 0x3d	; 61
     da8:	be b7       	in	r27, 0x3e	; 62
     daa:	12 96       	adiw	r26, 0x02	; 2
     dac:	dc 93       	st	X, r29
     dae:	ce 93       	st	-X, r28
     db0:	11 97       	sbiw	r26, 0x01	; 1
     db2:	87 e1       	ldi	r24, 0x17	; 23
     db4:	91 e0       	ldi	r25, 0x01	; 1
     db6:	93 83       	std	Z+3, r25	; 0x03
     db8:	82 83       	std	Z+2, r24	; 0x02
     dba:	44 83       	std	Z+4, r20	; 0x04
     dbc:	15 82       	std	Z+5, r1	; 0x05
     dbe:	36 83       	std	Z+6, r19	; 0x06
     dc0:	17 82       	std	Z+7, r1	; 0x07
     dc2:	20 87       	std	Z+8, r18	; 0x08
     dc4:	11 86       	std	Z+9, r1	; 0x09
     dc6:	0e 94 03 1c 	call	0x3806	; 0x3806 <sprintf>
		LCDWriteStringXY(0,0,str);
     dca:	ed b7       	in	r30, 0x3d	; 61
     dcc:	fe b7       	in	r31, 0x3e	; 62
     dce:	3a 96       	adiw	r30, 0x0a	; 10
     dd0:	0f b6       	in	r0, 0x3f	; 63
     dd2:	f8 94       	cli
     dd4:	fe bf       	out	0x3e, r31	; 62
     dd6:	0f be       	out	0x3f, r0	; 63
     dd8:	ed bf       	out	0x3d, r30	; 61
     dda:	80 e0       	ldi	r24, 0x00	; 0
     ddc:	60 e0       	ldi	r22, 0x00	; 0
     dde:	ae 01       	movw	r20, r28
     de0:	0e 94 d8 01 	call	0x3b0	; 0x3b0 <LCDWriteStringXY>
	}
	if(bTimeChanged){
     de4:	80 91 ad 02 	lds	r24, 0x02AD
     de8:	88 23       	and	r24, r24
     dea:	09 f4       	brne	.+2      	; 0xdee <refreshQuote+0x82>
     dec:	48 c0       	rjmp	.+144    	; 0xe7e <refreshQuote+0x112>
		bTimeChanged=0;
     dee:	10 92 ad 02 	sts	0x02AD, r1
		sprintf(str, "%02d", tTime.bHour);
     df2:	80 91 c9 02 	lds	r24, 0x02C9
     df6:	00 d0       	rcall	.+0      	; 0xdf8 <refreshQuote+0x8c>
     df8:	00 d0       	rcall	.+0      	; 0xdfa <refreshQuote+0x8e>
     dfa:	00 d0       	rcall	.+0      	; 0xdfc <refreshQuote+0x90>
     dfc:	ed b7       	in	r30, 0x3d	; 61
     dfe:	fe b7       	in	r31, 0x3e	; 62
     e00:	31 96       	adiw	r30, 0x01	; 1
     e02:	c3 ee       	ldi	r28, 0xE3	; 227
     e04:	d1 e0       	ldi	r29, 0x01	; 1
     e06:	ad b7       	in	r26, 0x3d	; 61
     e08:	be b7       	in	r27, 0x3e	; 62
     e0a:	12 96       	adiw	r26, 0x02	; 2
     e0c:	dc 93       	st	X, r29
     e0e:	ce 93       	st	-X, r28
     e10:	11 97       	sbiw	r26, 0x01	; 1
     e12:	07 e2       	ldi	r16, 0x27	; 39
     e14:	11 e0       	ldi	r17, 0x01	; 1
     e16:	13 83       	std	Z+3, r17	; 0x03
     e18:	02 83       	std	Z+2, r16	; 0x02
     e1a:	84 83       	std	Z+4, r24	; 0x04
     e1c:	15 82       	std	Z+5, r1	; 0x05
     e1e:	0e 94 03 1c 	call	0x3806	; 0x3806 <sprintf>
		LCDWriteStringXY(CLOCK_CURSOR_POSITION, 0, str);
     e22:	ed b7       	in	r30, 0x3d	; 61
     e24:	fe b7       	in	r31, 0x3e	; 62
     e26:	36 96       	adiw	r30, 0x06	; 6
     e28:	0f b6       	in	r0, 0x3f	; 63
     e2a:	f8 94       	cli
     e2c:	fe bf       	out	0x3e, r31	; 62
     e2e:	0f be       	out	0x3f, r0	; 63
     e30:	ed bf       	out	0x3d, r30	; 61
     e32:	8b e0       	ldi	r24, 0x0B	; 11
     e34:	60 e0       	ldi	r22, 0x00	; 0
     e36:	ae 01       	movw	r20, r28
     e38:	0e 94 d8 01 	call	0x3b0	; 0x3b0 <LCDWriteStringXY>
		sprintf(str, "%02d", tTime.bMin);
     e3c:	80 91 c8 02 	lds	r24, 0x02C8
     e40:	00 d0       	rcall	.+0      	; 0xe42 <refreshQuote+0xd6>
     e42:	00 d0       	rcall	.+0      	; 0xe44 <refreshQuote+0xd8>
     e44:	00 d0       	rcall	.+0      	; 0xe46 <refreshQuote+0xda>
     e46:	ed b7       	in	r30, 0x3d	; 61
     e48:	fe b7       	in	r31, 0x3e	; 62
     e4a:	31 96       	adiw	r30, 0x01	; 1
     e4c:	ad b7       	in	r26, 0x3d	; 61
     e4e:	be b7       	in	r27, 0x3e	; 62
     e50:	12 96       	adiw	r26, 0x02	; 2
     e52:	dc 93       	st	X, r29
     e54:	ce 93       	st	-X, r28
     e56:	11 97       	sbiw	r26, 0x01	; 1
     e58:	13 83       	std	Z+3, r17	; 0x03
     e5a:	02 83       	std	Z+2, r16	; 0x02
     e5c:	84 83       	std	Z+4, r24	; 0x04
     e5e:	15 82       	std	Z+5, r1	; 0x05
     e60:	0e 94 03 1c 	call	0x3806	; 0x3806 <sprintf>
		LCDWriteStringXY(CLOCK_CURSOR_POSITION+3, 0, str);
     e64:	ed b7       	in	r30, 0x3d	; 61
     e66:	fe b7       	in	r31, 0x3e	; 62
     e68:	36 96       	adiw	r30, 0x06	; 6
     e6a:	0f b6       	in	r0, 0x3f	; 63
     e6c:	f8 94       	cli
     e6e:	fe bf       	out	0x3e, r31	; 62
     e70:	0f be       	out	0x3f, r0	; 63
     e72:	ed bf       	out	0x3d, r30	; 61
     e74:	8e e0       	ldi	r24, 0x0E	; 14
     e76:	60 e0       	ldi	r22, 0x00	; 0
     e78:	ae 01       	movw	r20, r28
     e7a:	0e 94 d8 01 	call	0x3b0	; 0x3b0 <LCDWriteStringXY>
	}
	if(bTempChanged){
     e7e:	80 91 be 02 	lds	r24, 0x02BE
     e82:	88 23       	and	r24, r24
     e84:	09 f4       	brne	.+2      	; 0xe88 <refreshQuote+0x11c>
     e86:	40 c0       	rjmp	.+128    	; 0xf08 <refreshQuote+0x19c>
		bTempChanged=0;
     e88:	10 92 be 02 	sts	0x02BE, r1
		sprintf(str, "%04.1f", fTemperature);		// float printed with 4 digits (dot included), 1 of which is decimal, zero padded
     e8c:	80 91 93 02 	lds	r24, 0x0293
     e90:	90 91 94 02 	lds	r25, 0x0294
     e94:	a0 91 95 02 	lds	r26, 0x0295
     e98:	b0 91 96 02 	lds	r27, 0x0296
     e9c:	2d b7       	in	r18, 0x3d	; 61
     e9e:	3e b7       	in	r19, 0x3e	; 62
     ea0:	28 50       	subi	r18, 0x08	; 8
     ea2:	30 40       	sbci	r19, 0x00	; 0
     ea4:	0f b6       	in	r0, 0x3f	; 63
     ea6:	f8 94       	cli
     ea8:	3e bf       	out	0x3e, r19	; 62
     eaa:	0f be       	out	0x3f, r0	; 63
     eac:	2d bf       	out	0x3d, r18	; 61
     eae:	4d b7       	in	r20, 0x3d	; 61
     eb0:	5e b7       	in	r21, 0x3e	; 62
     eb2:	4f 5f       	subi	r20, 0xFF	; 255
     eb4:	5f 4f       	sbci	r21, 0xFF	; 255
     eb6:	c3 ee       	ldi	r28, 0xE3	; 227
     eb8:	d1 e0       	ldi	r29, 0x01	; 1
     eba:	ed b7       	in	r30, 0x3d	; 61
     ebc:	fe b7       	in	r31, 0x3e	; 62
     ebe:	d2 83       	std	Z+2, r29	; 0x02
     ec0:	c1 83       	std	Z+1, r28	; 0x01
     ec2:	2c e2       	ldi	r18, 0x2C	; 44
     ec4:	31 e0       	ldi	r19, 0x01	; 1
     ec6:	fa 01       	movw	r30, r20
     ec8:	33 83       	std	Z+3, r19	; 0x03
     eca:	22 83       	std	Z+2, r18	; 0x02
     ecc:	84 83       	std	Z+4, r24	; 0x04
     ece:	95 83       	std	Z+5, r25	; 0x05
     ed0:	a6 83       	std	Z+6, r26	; 0x06
     ed2:	b7 83       	std	Z+7, r27	; 0x07
     ed4:	0e 94 03 1c 	call	0x3806	; 0x3806 <sprintf>
		LCDWriteStringXY(TEMP_CURSOR_POSITION,1, str);
     ed8:	2d b7       	in	r18, 0x3d	; 61
     eda:	3e b7       	in	r19, 0x3e	; 62
     edc:	28 5f       	subi	r18, 0xF8	; 248
     ede:	3f 4f       	sbci	r19, 0xFF	; 255
     ee0:	0f b6       	in	r0, 0x3f	; 63
     ee2:	f8 94       	cli
     ee4:	3e bf       	out	0x3e, r19	; 62
     ee6:	0f be       	out	0x3f, r0	; 63
     ee8:	2d bf       	out	0x3d, r18	; 61
     eea:	80 e0       	ldi	r24, 0x00	; 0
     eec:	61 e0       	ldi	r22, 0x01	; 1
     eee:	ae 01       	movw	r20, r28
     ef0:	0e 94 d8 01 	call	0x3b0	; 0x3b0 <LCDWriteStringXY>
		LCDByte(0b11011111, 1);
     ef4:	8f ed       	ldi	r24, 0xDF	; 223
     ef6:	61 e0       	ldi	r22, 0x01	; 1
     ef8:	0e 94 04 01 	call	0x208	; 0x208 <LCDByte>
		LCDWriteStringXY(TEMP_CURSOR_POSITION+5, 1, "C,");
     efc:	85 e0       	ldi	r24, 0x05	; 5
     efe:	61 e0       	ldi	r22, 0x01	; 1
     f00:	4b e0       	ldi	r20, 0x0B	; 11
     f02:	51 e0       	ldi	r21, 0x01	; 1
     f04:	0e 94 d8 01 	call	0x3b0	; 0x3b0 <LCDWriteStringXY>
		
	}
	if(bHumChanged){
     f08:	80 91 bc 02 	lds	r24, 0x02BC
     f0c:	88 23       	and	r24, r24
     f0e:	09 f4       	brne	.+2      	; 0xf12 <refreshQuote+0x1a6>
     f10:	69 c0       	rjmp	.+210    	; 0xfe4 <refreshQuote+0x278>
		bHumChanged=0;
     f12:	10 92 bc 02 	sts	0x02BC, r1
		float hundred = 99.95;
		LCDWriteStringXY(HUM_CURSOR_POSITION-3, 1, "RH=");
     f16:	88 e0       	ldi	r24, 0x08	; 8
     f18:	61 e0       	ldi	r22, 0x01	; 1
     f1a:	43 e3       	ldi	r20, 0x33	; 51
     f1c:	51 e0       	ldi	r21, 0x01	; 1
     f1e:	0e 94 d8 01 	call	0x3b0	; 0x3b0 <LCDWriteStringXY>
		if(fHumidity<hundred){
     f22:	60 91 97 02 	lds	r22, 0x0297
     f26:	70 91 98 02 	lds	r23, 0x0298
     f2a:	80 91 99 02 	lds	r24, 0x0299
     f2e:	90 91 9a 02 	lds	r25, 0x029A
     f32:	26 e6       	ldi	r18, 0x66	; 102
     f34:	36 ee       	ldi	r19, 0xE6	; 230
     f36:	47 ec       	ldi	r20, 0xC7	; 199
     f38:	52 e4       	ldi	r21, 0x42	; 66
     f3a:	0e 94 c9 18 	call	0x3192	; 0x3192 <__cmpsf2>
     f3e:	23 ee       	ldi	r18, 0xE3	; 227
     f40:	31 e0       	ldi	r19, 0x01	; 1
     f42:	87 ff       	sbrs	r24, 7
     f44:	1b c0       	rjmp	.+54     	; 0xf7c <refreshQuote+0x210>
			sprintf(str, "%04.1f", fHumidity);
     f46:	80 91 97 02 	lds	r24, 0x0297
     f4a:	90 91 98 02 	lds	r25, 0x0298
     f4e:	a0 91 99 02 	lds	r26, 0x0299
     f52:	b0 91 9a 02 	lds	r27, 0x029A
     f56:	4d b7       	in	r20, 0x3d	; 61
     f58:	5e b7       	in	r21, 0x3e	; 62
     f5a:	48 50       	subi	r20, 0x08	; 8
     f5c:	50 40       	sbci	r21, 0x00	; 0
     f5e:	0f b6       	in	r0, 0x3f	; 63
     f60:	f8 94       	cli
     f62:	5e bf       	out	0x3e, r21	; 62
     f64:	0f be       	out	0x3f, r0	; 63
     f66:	4d bf       	out	0x3d, r20	; 61
     f68:	ed b7       	in	r30, 0x3d	; 61
     f6a:	fe b7       	in	r31, 0x3e	; 62
     f6c:	31 96       	adiw	r30, 0x01	; 1
     f6e:	cd b7       	in	r28, 0x3d	; 61
     f70:	de b7       	in	r29, 0x3e	; 62
     f72:	3a 83       	std	Y+2, r19	; 0x02
     f74:	29 83       	std	Y+1, r18	; 0x01
     f76:	2c e2       	ldi	r18, 0x2C	; 44
     f78:	31 e0       	ldi	r19, 0x01	; 1
     f7a:	1a c0       	rjmp	.+52     	; 0xfb0 <refreshQuote+0x244>
		}else{
			sprintf(str, " %3.0f", fHumidity);
     f7c:	80 91 97 02 	lds	r24, 0x0297
     f80:	90 91 98 02 	lds	r25, 0x0298
     f84:	a0 91 99 02 	lds	r26, 0x0299
     f88:	b0 91 9a 02 	lds	r27, 0x029A
     f8c:	4d b7       	in	r20, 0x3d	; 61
     f8e:	5e b7       	in	r21, 0x3e	; 62
     f90:	48 50       	subi	r20, 0x08	; 8
     f92:	50 40       	sbci	r21, 0x00	; 0
     f94:	0f b6       	in	r0, 0x3f	; 63
     f96:	f8 94       	cli
     f98:	5e bf       	out	0x3e, r21	; 62
     f9a:	0f be       	out	0x3f, r0	; 63
     f9c:	4d bf       	out	0x3d, r20	; 61
     f9e:	ed b7       	in	r30, 0x3d	; 61
     fa0:	fe b7       	in	r31, 0x3e	; 62
     fa2:	31 96       	adiw	r30, 0x01	; 1
     fa4:	cd b7       	in	r28, 0x3d	; 61
     fa6:	de b7       	in	r29, 0x3e	; 62
     fa8:	3a 83       	std	Y+2, r19	; 0x02
     faa:	29 83       	std	Y+1, r18	; 0x01
     fac:	27 e3       	ldi	r18, 0x37	; 55
     fae:	31 e0       	ldi	r19, 0x01	; 1
     fb0:	33 83       	std	Z+3, r19	; 0x03
     fb2:	22 83       	std	Z+2, r18	; 0x02
     fb4:	84 83       	std	Z+4, r24	; 0x04
     fb6:	95 83       	std	Z+5, r25	; 0x05
     fb8:	a6 83       	std	Z+6, r26	; 0x06
     fba:	b7 83       	std	Z+7, r27	; 0x07
     fbc:	0e 94 03 1c 	call	0x3806	; 0x3806 <sprintf>
     fc0:	ed b7       	in	r30, 0x3d	; 61
     fc2:	fe b7       	in	r31, 0x3e	; 62
     fc4:	38 96       	adiw	r30, 0x08	; 8
     fc6:	0f b6       	in	r0, 0x3f	; 63
     fc8:	f8 94       	cli
     fca:	fe bf       	out	0x3e, r31	; 62
     fcc:	0f be       	out	0x3f, r0	; 63
     fce:	ed bf       	out	0x3d, r30	; 61
		}
		LCDWriteStringXY(HUM_CURSOR_POSITION, 1, str);
     fd0:	8b e0       	ldi	r24, 0x0B	; 11
     fd2:	61 e0       	ldi	r22, 0x01	; 1
     fd4:	43 ee       	ldi	r20, 0xE3	; 227
     fd6:	51 e0       	ldi	r21, 0x01	; 1
     fd8:	0e 94 d8 01 	call	0x3b0	; 0x3b0 <LCDWriteStringXY>
		LCDWriteString("%");
     fdc:	8e e3       	ldi	r24, 0x3E	; 62
     fde:	91 e0       	ldi	r25, 0x01	; 1
     fe0:	0e 94 68 01 	call	0x2d0	; 0x2d0 <LCDWriteString>
	}
}
     fe4:	df 91       	pop	r29
     fe6:	cf 91       	pop	r28
     fe8:	1f 91       	pop	r17
     fea:	0f 91       	pop	r16
     fec:	08 95       	ret

00000fee <vConfirmState>:

void vConfirmState(void){
	
	switch(bBtn){
     fee:	80 91 18 03 	lds	r24, 0x0318
     ff2:	86 30       	cpi	r24, 0x06	; 6
     ff4:	09 f4       	brne	.+2      	; 0xff8 <vConfirmState+0xa>
     ff6:	b0 c0       	rjmp	.+352    	; 0x1158 <vConfirmState+0x16a>
     ff8:	87 30       	cpi	r24, 0x07	; 7
     ffa:	09 f4       	brne	.+2      	; 0xffe <vConfirmState+0x10>
     ffc:	ba c0       	rjmp	.+372    	; 0x1172 <vConfirmState+0x184>
     ffe:	88 23       	and	r24, r24
    1000:	09 f0       	breq	.+2      	; 0x1004 <vConfirmState+0x16>
    1002:	05 c1       	rjmp	.+522    	; 0x120e <vConfirmState+0x220>
		case NO_BTN:
			if(bPrintQuotes){ 
    1004:	80 91 cf 02 	lds	r24, 0x02CF
    1008:	88 23       	and	r24, r24
    100a:	b9 f1       	breq	.+110    	; 0x107a <vConfirmState+0x8c>
				LCDWriteStringXY(0,0, "Confermi? Si/No");
    100c:	80 e0       	ldi	r24, 0x00	; 0
    100e:	60 e0       	ldi	r22, 0x00	; 0
    1010:	40 e4       	ldi	r20, 0x40	; 64
    1012:	51 e0       	ldi	r21, 0x01	; 1
    1014:	0e 94 d8 01 	call	0x3b0	; 0x3b0 <LCDWriteStringXY>
				LCD_CURSOR_LEFT_N(5);
    1018:	10 92 83 02 	sts	0x0283, r1
    101c:	10 92 84 02 	sts	0x0284, r1
    1020:	10 92 85 02 	sts	0x0285, r1
    1024:	10 92 86 02 	sts	0x0286, r1
    1028:	17 c0       	rjmp	.+46     	; 0x1058 <vConfirmState+0x6a>
    102a:	80 e1       	ldi	r24, 0x10	; 16
    102c:	60 e0       	ldi	r22, 0x00	; 0
    102e:	0e 94 04 01 	call	0x208	; 0x208 <LCDByte>
    1032:	80 91 83 02 	lds	r24, 0x0283
    1036:	90 91 84 02 	lds	r25, 0x0284
    103a:	a0 91 85 02 	lds	r26, 0x0285
    103e:	b0 91 86 02 	lds	r27, 0x0286
    1042:	01 96       	adiw	r24, 0x01	; 1
    1044:	a1 1d       	adc	r26, r1
    1046:	b1 1d       	adc	r27, r1
    1048:	80 93 83 02 	sts	0x0283, r24
    104c:	90 93 84 02 	sts	0x0284, r25
    1050:	a0 93 85 02 	sts	0x0285, r26
    1054:	b0 93 86 02 	sts	0x0286, r27
    1058:	80 91 83 02 	lds	r24, 0x0283
    105c:	90 91 84 02 	lds	r25, 0x0284
    1060:	a0 91 85 02 	lds	r26, 0x0285
    1064:	b0 91 86 02 	lds	r27, 0x0286
    1068:	85 30       	cpi	r24, 0x05	; 5
    106a:	91 05       	cpc	r25, r1
    106c:	a1 05       	cpc	r26, r1
    106e:	b1 05       	cpc	r27, r1
    1070:	e0 f2       	brcs	.-72     	; 0x102a <vConfirmState+0x3c>
				bPrintQuotes=0;
    1072:	10 92 cf 02 	sts	0x02CF, r1
				bSelection=0;
    1076:	10 92 8f 02 	sts	0x028F, r1
			}
			if(bSelectionChanged){
    107a:	80 91 db 02 	lds	r24, 0x02DB
    107e:	88 23       	and	r24, r24
    1080:	09 f4       	brne	.+2      	; 0x1084 <vConfirmState+0x96>
    1082:	c5 c0       	rjmp	.+394    	; 0x120e <vConfirmState+0x220>
				if(bSelection==0){		// Utilizzo bSelection per mantenere la scelta Si/No
    1084:	80 91 8f 02 	lds	r24, 0x028F
    1088:	88 23       	and	r24, r24
    108a:	91 f5       	brne	.+100    	; 0x10f0 <vConfirmState+0x102>
					LCD_SET_CURSOR_POSITION(10);
    108c:	82 e0       	ldi	r24, 0x02	; 2
    108e:	60 e0       	ldi	r22, 0x00	; 0
    1090:	0e 94 04 01 	call	0x208	; 0x208 <LCDByte>
    1094:	10 92 83 02 	sts	0x0283, r1
    1098:	10 92 84 02 	sts	0x0284, r1
    109c:	10 92 85 02 	sts	0x0285, r1
    10a0:	10 92 86 02 	sts	0x0286, r1
    10a4:	17 c0       	rjmp	.+46     	; 0x10d4 <vConfirmState+0xe6>
    10a6:	84 e1       	ldi	r24, 0x14	; 20
    10a8:	60 e0       	ldi	r22, 0x00	; 0
    10aa:	0e 94 04 01 	call	0x208	; 0x208 <LCDByte>
    10ae:	80 91 83 02 	lds	r24, 0x0283
    10b2:	90 91 84 02 	lds	r25, 0x0284
    10b6:	a0 91 85 02 	lds	r26, 0x0285
    10ba:	b0 91 86 02 	lds	r27, 0x0286
    10be:	01 96       	adiw	r24, 0x01	; 1
    10c0:	a1 1d       	adc	r26, r1
    10c2:	b1 1d       	adc	r27, r1
    10c4:	80 93 83 02 	sts	0x0283, r24
    10c8:	90 93 84 02 	sts	0x0284, r25
    10cc:	a0 93 85 02 	sts	0x0285, r26
    10d0:	b0 93 86 02 	sts	0x0286, r27
    10d4:	80 91 83 02 	lds	r24, 0x0283
    10d8:	90 91 84 02 	lds	r25, 0x0284
    10dc:	a0 91 85 02 	lds	r26, 0x0285
    10e0:	b0 91 86 02 	lds	r27, 0x0286
    10e4:	8a 30       	cpi	r24, 0x0A	; 10
    10e6:	91 05       	cpc	r25, r1
    10e8:	a1 05       	cpc	r26, r1
    10ea:	b1 05       	cpc	r27, r1
    10ec:	e0 f2       	brcs	.-72     	; 0x10a6 <vConfirmState+0xb8>
    10ee:	31 c0       	rjmp	.+98     	; 0x1152 <vConfirmState+0x164>
				}else{
					LCD_SET_CURSOR_POSITION(13);
    10f0:	82 e0       	ldi	r24, 0x02	; 2
    10f2:	60 e0       	ldi	r22, 0x00	; 0
    10f4:	0e 94 04 01 	call	0x208	; 0x208 <LCDByte>
    10f8:	10 92 83 02 	sts	0x0283, r1
    10fc:	10 92 84 02 	sts	0x0284, r1
    1100:	10 92 85 02 	sts	0x0285, r1
    1104:	10 92 86 02 	sts	0x0286, r1
    1108:	17 c0       	rjmp	.+46     	; 0x1138 <vConfirmState+0x14a>
    110a:	84 e1       	ldi	r24, 0x14	; 20
    110c:	60 e0       	ldi	r22, 0x00	; 0
    110e:	0e 94 04 01 	call	0x208	; 0x208 <LCDByte>
    1112:	80 91 83 02 	lds	r24, 0x0283
    1116:	90 91 84 02 	lds	r25, 0x0284
    111a:	a0 91 85 02 	lds	r26, 0x0285
    111e:	b0 91 86 02 	lds	r27, 0x0286
    1122:	01 96       	adiw	r24, 0x01	; 1
    1124:	a1 1d       	adc	r26, r1
    1126:	b1 1d       	adc	r27, r1
    1128:	80 93 83 02 	sts	0x0283, r24
    112c:	90 93 84 02 	sts	0x0284, r25
    1130:	a0 93 85 02 	sts	0x0285, r26
    1134:	b0 93 86 02 	sts	0x0286, r27
    1138:	80 91 83 02 	lds	r24, 0x0283
    113c:	90 91 84 02 	lds	r25, 0x0284
    1140:	a0 91 85 02 	lds	r26, 0x0285
    1144:	b0 91 86 02 	lds	r27, 0x0286
    1148:	8d 30       	cpi	r24, 0x0D	; 13
    114a:	91 05       	cpc	r25, r1
    114c:	a1 05       	cpc	r26, r1
    114e:	b1 05       	cpc	r27, r1
    1150:	e0 f2       	brcs	.-72     	; 0x110a <vConfirmState+0x11c>
				}				
				bSelectionChanged=0;
    1152:	10 92 db 02 	sts	0x02DB, r1
    1156:	08 95       	ret
			}
							
			break;
						
		case BTN_C:
			bSelection = (bSelection == 0)?1:0;
    1158:	90 91 8f 02 	lds	r25, 0x028F
    115c:	81 e0       	ldi	r24, 0x01	; 1
    115e:	91 11       	cpse	r25, r1
    1160:	80 e0       	ldi	r24, 0x00	; 0
    1162:	80 93 8f 02 	sts	0x028F, r24
			bSelectionChanged=1;
    1166:	81 e0       	ldi	r24, 0x01	; 1
    1168:	80 93 db 02 	sts	0x02DB, r24
			bBtn=NO_BTN;
    116c:	10 92 18 03 	sts	0x0318, r1
			break;
    1170:	08 95       	ret
						
		case BTN_C_LONG:
			if(bSelection){
    1172:	80 91 8f 02 	lds	r24, 0x028F
    1176:	88 23       	and	r24, r24
    1178:	31 f0       	breq	.+12     	; 0x1186 <vConfirmState+0x198>
				bState = STATE_MENU;
    117a:	81 e0       	ldi	r24, 0x01	; 1
    117c:	80 93 82 02 	sts	0x0282, r24
				bSelection=0;
    1180:	10 92 8f 02 	sts	0x028F, r1
    1184:	3f c0       	rjmp	.+126    	; 0x1204 <vConfirmState+0x216>
			}
			else{				// Confermo la modifica
				switch(bState){
    1186:	80 91 82 02 	lds	r24, 0x0282
    118a:	85 30       	cpi	r24, 0x05	; 5
    118c:	b9 f0       	breq	.+46     	; 0x11bc <vConfirmState+0x1ce>
    118e:	86 30       	cpi	r24, 0x06	; 6
    1190:	18 f4       	brcc	.+6      	; 0x1198 <vConfirmState+0x1aa>
    1192:	83 30       	cpi	r24, 0x03	; 3
    1194:	49 f5       	brne	.+82     	; 0x11e8 <vConfirmState+0x1fa>
    1196:	05 c0       	rjmp	.+10     	; 0x11a2 <vConfirmState+0x1b4>
    1198:	87 30       	cpi	r24, 0x07	; 7
    119a:	e9 f0       	breq	.+58     	; 0x11d6 <vConfirmState+0x1e8>
    119c:	89 30       	cpi	r24, 0x09	; 9
    119e:	21 f5       	brne	.+72     	; 0x11e8 <vConfirmState+0x1fa>
    11a0:	1f c0       	rjmp	.+62     	; 0x11e0 <vConfirmState+0x1f2>
					case STATE_EDIT_DATE_CONFIRM:
						tTime.bDay = tTimeEditing.bDay;
    11a2:	80 91 f2 02 	lds	r24, 0x02F2
    11a6:	80 93 ca 02 	sts	0x02CA, r24
						tTime.bMonth = tTimeEditing.bMonth;
    11aa:	80 91 f3 02 	lds	r24, 0x02F3
    11ae:	80 93 cb 02 	sts	0x02CB, r24
						tTime.bYear = tTimeEditing.bYear;
    11b2:	80 91 f4 02 	lds	r24, 0x02F4
    11b6:	80 93 cc 02 	sts	0x02CC, r24
						break;
    11ba:	16 c0       	rjmp	.+44     	; 0x11e8 <vConfirmState+0x1fa>
						
					case STATE_EDIT_TIME_CONFIRM:
						tTime.bSec = tTimeEditing.bSec;
    11bc:	80 91 ef 02 	lds	r24, 0x02EF
    11c0:	80 93 c7 02 	sts	0x02C7, r24
						tTime.bMin = tTimeEditing.bMin;
    11c4:	80 91 f0 02 	lds	r24, 0x02F0
    11c8:	80 93 c8 02 	sts	0x02C8, r24
						tTime.bHour = tTimeEditing.bHour;
    11cc:	80 91 f1 02 	lds	r24, 0x02F1
    11d0:	80 93 c9 02 	sts	0x02C9, r24
						break;
    11d4:	09 c0       	rjmp	.+18     	; 0x11e8 <vConfirmState+0x1fa>
						
					case STATE_EDIT_HUM_ON_TH_CONFIRM:
						bHumOnThreshold = bHumOnThresholdEditing;
    11d6:	80 91 09 03 	lds	r24, 0x0309
    11da:	80 93 ec 02 	sts	0x02EC, r24
						break;
    11de:	04 c0       	rjmp	.+8      	; 0x11e8 <vConfirmState+0x1fa>
					
					case STATE_EDIT_HUM_AL_TH_CONFIRM:
						bHumAlarmThreshold = bHumAlarmThresholdEditing;
    11e0:	80 91 90 02 	lds	r24, 0x0290
    11e4:	80 93 08 03 	sts	0x0308, r24
						break;
					
					default: break;
				}				
				bState = STATE_MENU;
    11e8:	81 e0       	ldi	r24, 0x01	; 1
    11ea:	80 93 82 02 	sts	0x0282, r24
				LCD_RESET();
    11ee:	60 e0       	ldi	r22, 0x00	; 0
    11f0:	0e 94 04 01 	call	0x208	; 0x208 <LCDByte>
    11f4:	82 e0       	ldi	r24, 0x02	; 2
    11f6:	60 e0       	ldi	r22, 0x00	; 0
    11f8:	0e 94 04 01 	call	0x208	; 0x208 <LCDByte>
    11fc:	8c e0       	ldi	r24, 0x0C	; 12
    11fe:	60 e0       	ldi	r22, 0x00	; 0
    1200:	0e 94 04 01 	call	0x208	; 0x208 <LCDByte>
			}
			bBtn = NO_BTN;
    1204:	10 92 18 03 	sts	0x0318, r1
			bPrintQuotes=1;
    1208:	81 e0       	ldi	r24, 0x01	; 1
    120a:	80 93 cf 02 	sts	0x02CF, r24
    120e:	08 95       	ret

00001210 <isLeapYear>:
			break;
		default: break;
	}
}

int isLeapYear(byte year){
    1210:	28 2f       	mov	r18, r24
	if(year % 4 == 0 && (year % 100 != 0 || year % 400 == 0)) return 1;
    1212:	83 70       	andi	r24, 0x03	; 3
    1214:	79 f4       	brne	.+30     	; 0x1234 <isLeapYear+0x24>
    1216:	82 2f       	mov	r24, r18
    1218:	64 e6       	ldi	r22, 0x64	; 100
    121a:	0e 94 7f 1a 	call	0x34fe	; 0x34fe <__udivmodqi4>
    121e:	99 23       	and	r25, r25
    1220:	61 f4       	brne	.+24     	; 0x123a <isLeapYear+0x2a>
    1222:	82 2f       	mov	r24, r18
    1224:	60 e9       	ldi	r22, 0x90	; 144
    1226:	71 e0       	ldi	r23, 0x01	; 1
    1228:	0e 94 8b 1a 	call	0x3516	; 0x3516 <__divmodhi4>
			break;
		default: break;
	}
}

int isLeapYear(byte year){
    122c:	21 e0       	ldi	r18, 0x01	; 1
    122e:	30 e0       	ldi	r19, 0x00	; 0
    1230:	00 97       	sbiw	r24, 0x00	; 0
    1232:	29 f0       	breq	.+10     	; 0x123e <isLeapYear+0x2e>
	if(year % 4 == 0 && (year % 100 != 0 || year % 400 == 0)) return 1;
	return 0;
    1234:	20 e0       	ldi	r18, 0x00	; 0
    1236:	30 e0       	ldi	r19, 0x00	; 0
    1238:	02 c0       	rjmp	.+4      	; 0x123e <isLeapYear+0x2e>
		default: break;
	}
}

int isLeapYear(byte year){
	if(year % 4 == 0 && (year % 100 != 0 || year % 400 == 0)) return 1;
    123a:	21 e0       	ldi	r18, 0x01	; 1
    123c:	30 e0       	ldi	r19, 0x00	; 0
	return 0;
}
    123e:	c9 01       	movw	r24, r18
    1240:	08 95       	ret

00001242 <__vector_15>:
/*******************************   Interrupts   *************************************/
/************************************************************************************/


/****************************  RealTimeClock Interrupt ******************************/
ISR(TIMER0_COMPB_vect){
    1242:	1f 92       	push	r1
    1244:	0f 92       	push	r0
    1246:	0f b6       	in	r0, 0x3f	; 63
    1248:	0f 92       	push	r0
    124a:	11 24       	eor	r1, r1
    124c:	1f 93       	push	r17
    124e:	2f 93       	push	r18
    1250:	3f 93       	push	r19
    1252:	4f 93       	push	r20
    1254:	5f 93       	push	r21
    1256:	6f 93       	push	r22
    1258:	7f 93       	push	r23
    125a:	8f 93       	push	r24
    125c:	9f 93       	push	r25
    125e:	af 93       	push	r26
    1260:	bf 93       	push	r27
    1262:	ef 93       	push	r30
    1264:	ff 93       	push	r31
	if(bPriLev<PRI_TIMER0)	return;
    1266:	80 91 cd 02 	lds	r24, 0x02CD
    126a:	88 23       	and	r24, r24
    126c:	09 f4       	brne	.+2      	; 0x1270 <__vector_15+0x2e>
    126e:	4b c1       	rjmp	.+662    	; 0x1506 <__vector_15+0x2c4>
	byte bOldPriLev = bPriLev;
    1270:	10 91 cd 02 	lds	r17, 0x02CD
	bPriLev=PRI_TIMER0;
    1274:	21 e0       	ldi	r18, 0x01	; 1
    1276:	20 93 cd 02 	sts	0x02CD, r18
	
	
/*	*************** FILTERS **************	*/
	bPort = BUTTON_PINS;
    127a:	89 b1       	in	r24, 0x09	; 9
    127c:	80 93 fd 02 	sts	0x02FD, r24
	bBtnAPressed = bPort & BIT2;		// UP
    1280:	80 91 fd 02 	lds	r24, 0x02FD
    1284:	84 70       	andi	r24, 0x04	; 4
    1286:	80 93 f8 02 	sts	0x02F8, r24
	bBtnBPressed = bPort & BIT4;		// DOWN
    128a:	80 91 fd 02 	lds	r24, 0x02FD
    128e:	80 71       	andi	r24, 0x10	; 16
    1290:	80 93 c4 02 	sts	0x02C4, r24
	bBtnCPressed = bPort & BIT3;		// MENU
    1294:	80 91 fd 02 	lds	r24, 0x02FD
    1298:	88 70       	andi	r24, 0x08	; 8
    129a:	80 93 17 03 	sts	0x0317, r24
	// bBtnXPressed=0  -->button X pressed! connected to ground
	
	if(!bBtnCPressed&&(!bInhibite)){ //btnC is pressed
    129e:	80 91 17 03 	lds	r24, 0x0317
    12a2:	88 23       	and	r24, r24
    12a4:	b9 f4       	brne	.+46     	; 0x12d4 <__vector_15+0x92>
    12a6:	80 91 16 03 	lds	r24, 0x0316
    12aa:	88 23       	and	r24, r24
    12ac:	99 f4       	brne	.+38     	; 0x12d4 <__vector_15+0x92>
		cButtonIntegrator.wC++;
    12ae:	80 91 9f 02 	lds	r24, 0x029F
    12b2:	90 91 a0 02 	lds	r25, 0x02A0
    12b6:	01 96       	adiw	r24, 0x01	; 1
    12b8:	90 93 a0 02 	sts	0x02A0, r25
    12bc:	80 93 9f 02 	sts	0x029F, r24
		if(cButtonIntegrator.wC>LONG_PRESSION_TIME){ bInhibite=1; }  // inhibites the btnC counter whenever entered in the menu
    12c0:	80 91 9f 02 	lds	r24, 0x029F
    12c4:	90 91 a0 02 	lds	r25, 0x02A0
    12c8:	85 36       	cpi	r24, 0x65	; 101
    12ca:	91 05       	cpc	r25, r1
    12cc:	b8 f1       	brcs	.+110    	; 0x133c <__vector_15+0xfa>
    12ce:	20 93 16 03 	sts	0x0316, r18
    12d2:	34 c0       	rjmp	.+104    	; 0x133c <__vector_15+0xfa>
	}
	else{
		if(bBtnCPressed!=0){	//btnC is not pressed <--  qui la furbata! disinibisco il pulsante C solo nel momento in 
    12d4:	80 91 17 03 	lds	r24, 0x0317
    12d8:	88 23       	and	r24, r24
    12da:	11 f0       	breq	.+4      	; 0x12e0 <__vector_15+0x9e>
			bInhibite=0;		// cui questo viene rilasciato; se entro nel menu e il pulsante  ancora premuto,
    12dc:	10 92 16 03 	sts	0x0316, r1
		}						// bInhibite resta a 1 e quindi wC a 0; questo finch mantengo premuto C.
								// Quando lo rilascio lo disinibisco, riattivandolo.
		
		if(cButtonIntegrator.wC<DEBOUNCE_TIME){
    12e0:	80 91 9f 02 	lds	r24, 0x029F
    12e4:	90 91 a0 02 	lds	r25, 0x02A0
    12e8:	87 30       	cpi	r24, 0x07	; 7
    12ea:	91 05       	cpc	r25, r1
    12ec:	28 f4       	brcc	.+10     	; 0x12f8 <__vector_15+0xb6>
			cButtonIntegrator.wC=0;
    12ee:	10 92 a0 02 	sts	0x02A0, r1
    12f2:	10 92 9f 02 	sts	0x029F, r1
    12f6:	22 c0       	rjmp	.+68     	; 0x133c <__vector_15+0xfa>
		}else if((cButtonIntegrator.wC>DEBOUNCE_TIME)&&(cButtonIntegrator.wC<LONG_PRESSION_TIME)){
    12f8:	80 91 9f 02 	lds	r24, 0x029F
    12fc:	90 91 a0 02 	lds	r25, 0x02A0
    1300:	88 30       	cpi	r24, 0x08	; 8
    1302:	91 05       	cpc	r25, r1
    1304:	68 f0       	brcs	.+26     	; 0x1320 <__vector_15+0xde>
    1306:	80 91 9f 02 	lds	r24, 0x029F
    130a:	90 91 a0 02 	lds	r25, 0x02A0
    130e:	84 36       	cpi	r24, 0x64	; 100
    1310:	91 05       	cpc	r25, r1
    1312:	30 f4       	brcc	.+12     	; 0x1320 <__vector_15+0xde>
			cButtonIntegrator.wC=0;
    1314:	10 92 a0 02 	sts	0x02A0, r1
    1318:	10 92 9f 02 	sts	0x029F, r1
			bBtn = BTN_C;
    131c:	86 e0       	ldi	r24, 0x06	; 6
    131e:	0c c0       	rjmp	.+24     	; 0x1338 <__vector_15+0xf6>
		}else if(cButtonIntegrator.wC>LONG_PRESSION_TIME){
    1320:	80 91 9f 02 	lds	r24, 0x029F
    1324:	90 91 a0 02 	lds	r25, 0x02A0
    1328:	85 36       	cpi	r24, 0x65	; 101
    132a:	91 05       	cpc	r25, r1
    132c:	38 f0       	brcs	.+14     	; 0x133c <__vector_15+0xfa>
			cButtonIntegrator.wC=0;
    132e:	10 92 a0 02 	sts	0x02A0, r1
    1332:	10 92 9f 02 	sts	0x029F, r1
			bBtn = BTN_C_LONG;
    1336:	87 e0       	ldi	r24, 0x07	; 7
    1338:	80 93 18 03 	sts	0x0318, r24
		}
	}
	
	
	if(!bBtnAPressed){ 
    133c:	80 91 f8 02 	lds	r24, 0x02F8
    1340:	88 23       	and	r24, r24
    1342:	89 f4       	brne	.+34     	; 0x1366 <__vector_15+0x124>
		if(++cButtonIntegrator.wA>REPEATED_PRESSION_TIME){
    1344:	80 91 9b 02 	lds	r24, 0x029B
    1348:	90 91 9c 02 	lds	r25, 0x029C
    134c:	01 96       	adiw	r24, 0x01	; 1
    134e:	90 93 9c 02 	sts	0x029C, r25
    1352:	80 93 9b 02 	sts	0x029B, r24
    1356:	80 91 9b 02 	lds	r24, 0x029B
    135a:	90 91 9c 02 	lds	r25, 0x029C
    135e:	84 32       	cpi	r24, 0x24	; 36
    1360:	91 05       	cpc	r25, r1
    1362:	78 f0       	brcs	.+30     	; 0x1382 <__vector_15+0x140>
    1364:	07 c0       	rjmp	.+14     	; 0x1374 <__vector_15+0x132>
			bBtn = BTN_A;
			cButtonIntegrator.wA=0;
		}
	}else{
		if(cButtonIntegrator.wA<DEBOUNCE_TIME){ cButtonIntegrator.wA=0; }
    1366:	80 91 9b 02 	lds	r24, 0x029B
    136a:	90 91 9c 02 	lds	r25, 0x029C
    136e:	87 30       	cpi	r24, 0x07	; 7
    1370:	91 05       	cpc	r25, r1
    1372:	18 f0       	brcs	.+6      	; 0x137a <__vector_15+0x138>
		else{
			bBtn = BTN_A;
    1374:	82 e0       	ldi	r24, 0x02	; 2
    1376:	80 93 18 03 	sts	0x0318, r24
			cButtonIntegrator.wA=0;
    137a:	10 92 9c 02 	sts	0x029C, r1
    137e:	10 92 9b 02 	sts	0x029B, r1
		}
	}
	
	
	if(!bBtnBPressed){
    1382:	80 91 c4 02 	lds	r24, 0x02C4
    1386:	88 23       	and	r24, r24
    1388:	89 f4       	brne	.+34     	; 0x13ac <__vector_15+0x16a>
		if(++cButtonIntegrator.wB>REPEATED_PRESSION_TIME){
    138a:	80 91 9d 02 	lds	r24, 0x029D
    138e:	90 91 9e 02 	lds	r25, 0x029E
    1392:	01 96       	adiw	r24, 0x01	; 1
    1394:	90 93 9e 02 	sts	0x029E, r25
    1398:	80 93 9d 02 	sts	0x029D, r24
    139c:	80 91 9d 02 	lds	r24, 0x029D
    13a0:	90 91 9e 02 	lds	r25, 0x029E
    13a4:	84 32       	cpi	r24, 0x24	; 36
    13a6:	91 05       	cpc	r25, r1
    13a8:	78 f0       	brcs	.+30     	; 0x13c8 <__vector_15+0x186>
    13aa:	07 c0       	rjmp	.+14     	; 0x13ba <__vector_15+0x178>
			bBtn = BTN_B;
			cButtonIntegrator.wB=0;
		}
	}else{
		if(cButtonIntegrator.wB<DEBOUNCE_TIME){ cButtonIntegrator.wB=0; }
    13ac:	80 91 9d 02 	lds	r24, 0x029D
    13b0:	90 91 9e 02 	lds	r25, 0x029E
    13b4:	87 30       	cpi	r24, 0x07	; 7
    13b6:	91 05       	cpc	r25, r1
    13b8:	18 f0       	brcs	.+6      	; 0x13c0 <__vector_15+0x17e>
		else{
			bBtn = BTN_B;
    13ba:	84 e0       	ldi	r24, 0x04	; 4
    13bc:	80 93 18 03 	sts	0x0318, r24
			cButtonIntegrator.wB=0;
    13c0:	10 92 9e 02 	sts	0x029E, r1
    13c4:	10 92 9d 02 	sts	0x029D, r1
		}
	}
	
	
	if((!bBtnAPressed)&&(!bBtnBPressed)){ cButtonIntegrator.wAB++; }
    13c8:	80 91 f8 02 	lds	r24, 0x02F8
    13cc:	88 23       	and	r24, r24
    13ce:	71 f4       	brne	.+28     	; 0x13ec <__vector_15+0x1aa>
    13d0:	80 91 c4 02 	lds	r24, 0x02C4
    13d4:	88 23       	and	r24, r24
    13d6:	51 f4       	brne	.+20     	; 0x13ec <__vector_15+0x1aa>
    13d8:	80 91 a1 02 	lds	r24, 0x02A1
    13dc:	90 91 a2 02 	lds	r25, 0x02A2
    13e0:	01 96       	adiw	r24, 0x01	; 1
    13e2:	90 93 a2 02 	sts	0x02A2, r25
    13e6:	80 93 a1 02 	sts	0x02A1, r24
    13ea:	0e c0       	rjmp	.+28     	; 0x1408 <__vector_15+0x1c6>
	else{
		if(cButtonIntegrator.wAB<DEBOUNCE_TIME){ cButtonIntegrator.wAB=0; }
    13ec:	80 91 a1 02 	lds	r24, 0x02A1
    13f0:	90 91 a2 02 	lds	r25, 0x02A2
    13f4:	87 30       	cpi	r24, 0x07	; 7
    13f6:	91 05       	cpc	r25, r1
    13f8:	18 f0       	brcs	.+6      	; 0x1400 <__vector_15+0x1be>
		else{
			bBtn = BTN_AB;
    13fa:	88 e0       	ldi	r24, 0x08	; 8
    13fc:	80 93 18 03 	sts	0x0318, r24
			cButtonIntegrator.wAB=0;
    1400:	10 92 a2 02 	sts	0x02A2, r1
    1404:	10 92 a1 02 	sts	0x02A1, r1
	}
	
	
/* ******************************* RTC ******************************** */	
	
	if(tTime.wMilli<99) tTime.wMilli++;
    1408:	80 91 c5 02 	lds	r24, 0x02C5
    140c:	90 91 c6 02 	lds	r25, 0x02C6
    1410:	83 36       	cpi	r24, 0x63	; 99
    1412:	91 05       	cpc	r25, r1
    1414:	50 f4       	brcc	.+20     	; 0x142a <__vector_15+0x1e8>
    1416:	80 91 c5 02 	lds	r24, 0x02C5
    141a:	90 91 c6 02 	lds	r25, 0x02C6
    141e:	01 96       	adiw	r24, 0x01	; 1
    1420:	90 93 c6 02 	sts	0x02C6, r25
    1424:	80 93 c5 02 	sts	0x02C5, r24
    1428:	6c c0       	rjmp	.+216    	; 0x1502 <__vector_15+0x2c0>
	else{
		tTime.wMilli=0;
    142a:	10 92 c6 02 	sts	0x02C6, r1
    142e:	10 92 c5 02 	sts	0x02C5, r1
		if( tTime.bSec<59 ){
    1432:	80 91 c7 02 	lds	r24, 0x02C7
    1436:	8b 33       	cpi	r24, 0x3B	; 59
    1438:	70 f4       	brcc	.+28     	; 0x1456 <__vector_15+0x214>
			tTime.bSec++;
    143a:	80 91 c7 02 	lds	r24, 0x02C7
    143e:	8f 5f       	subi	r24, 0xFF	; 255
    1440:	80 93 c7 02 	sts	0x02C7, r24
			bTimeColonToToggle=1;	// time colon is flashing at 1 Hz
    1444:	81 e0       	ldi	r24, 0x01	; 1
    1446:	80 93 bf 02 	sts	0x02BF, r24
			START_ADC();		//testing: adc int every 1 sec
    144a:	80 91 7a 00 	lds	r24, 0x007A
    144e:	80 6c       	ori	r24, 0xC0	; 192
    1450:	80 93 7a 00 	sts	0x007A, r24
    1454:	56 c0       	rjmp	.+172    	; 0x1502 <__vector_15+0x2c0>
		}else{
			tTime.bSec=0;
    1456:	10 92 c7 02 	sts	0x02C7, r1
			if( tTime.bMin<59 ){
    145a:	80 91 c8 02 	lds	r24, 0x02C8
    145e:	8b 33       	cpi	r24, 0x3B	; 59
    1460:	30 f4       	brcc	.+12     	; 0x146e <__vector_15+0x22c>
				tTime.bMin++;
    1462:	80 91 c8 02 	lds	r24, 0x02C8
    1466:	8f 5f       	subi	r24, 0xFF	; 255
    1468:	80 93 c8 02 	sts	0x02C8, r24
    146c:	47 c0       	rjmp	.+142    	; 0x14fc <__vector_15+0x2ba>
				//if(tTime.bMin == 30) START_ADC();		// faccio il campionamento dell'ADC ogni 30 minuto
			}else{
				tTime.bMin=0;
    146e:	10 92 c8 02 	sts	0x02C8, r1
				//START_ADC();							// e ogni 0.
				if( tTime.bHour<23 ) tTime.bHour++;
    1472:	80 91 c9 02 	lds	r24, 0x02C9
    1476:	87 31       	cpi	r24, 0x17	; 23
    1478:	30 f4       	brcc	.+12     	; 0x1486 <__vector_15+0x244>
    147a:	80 91 c9 02 	lds	r24, 0x02C9
    147e:	8f 5f       	subi	r24, 0xFF	; 255
    1480:	80 93 c9 02 	sts	0x02C9, r24
    1484:	3b c0       	rjmp	.+118    	; 0x14fc <__vector_15+0x2ba>
				else {
					tTime.bHour=0;
    1486:	10 92 c9 02 	sts	0x02C9, r1
					if(tTime.bDay<(baDays[tTime.bMonth-1])){
    148a:	90 91 ca 02 	lds	r25, 0x02CA
    148e:	e0 91 cb 02 	lds	r30, 0x02CB
    1492:	f0 e0       	ldi	r31, 0x00	; 0
    1494:	ef 58       	subi	r30, 0x8F	; 143
    1496:	fd 4f       	sbci	r31, 0xFD	; 253
    1498:	80 81       	ld	r24, Z
    149a:	98 17       	cp	r25, r24
    149c:	c0 f4       	brcc	.+48     	; 0x14ce <__vector_15+0x28c>
						tTime.bDay++;
    149e:	80 91 ca 02 	lds	r24, 0x02CA
    14a2:	8f 5f       	subi	r24, 0xFF	; 255
    14a4:	80 93 ca 02 	sts	0x02CA, r24
						if(tTime.bDay==29 && tTime.bMonth==2 && (!isLeapYear(tTime.bYear))){
    14a8:	80 91 ca 02 	lds	r24, 0x02CA
    14ac:	8d 31       	cpi	r24, 0x1D	; 29
    14ae:	19 f5       	brne	.+70     	; 0x14f6 <__vector_15+0x2b4>
    14b0:	80 91 cb 02 	lds	r24, 0x02CB
    14b4:	82 30       	cpi	r24, 0x02	; 2
    14b6:	f9 f4       	brne	.+62     	; 0x14f6 <__vector_15+0x2b4>
    14b8:	80 91 cc 02 	lds	r24, 0x02CC
    14bc:	0e 94 08 09 	call	0x1210	; 0x1210 <isLeapYear>
    14c0:	00 97       	sbiw	r24, 0x00	; 0
    14c2:	c9 f4       	brne	.+50     	; 0x14f6 <__vector_15+0x2b4>
							tTime.bDay=1;
    14c4:	81 e0       	ldi	r24, 0x01	; 1
    14c6:	80 93 ca 02 	sts	0x02CA, r24
							tTime.bMonth=3;
    14ca:	83 e0       	ldi	r24, 0x03	; 3
    14cc:	0a c0       	rjmp	.+20     	; 0x14e2 <__vector_15+0x2a0>
						}
					}else{
						tTime.bDay=1;
    14ce:	81 e0       	ldi	r24, 0x01	; 1
    14d0:	80 93 ca 02 	sts	0x02CA, r24
						if(tTime.bMonth<12) tTime.bMonth++;
    14d4:	90 91 cb 02 	lds	r25, 0x02CB
    14d8:	9c 30       	cpi	r25, 0x0C	; 12
    14da:	30 f4       	brcc	.+12     	; 0x14e8 <__vector_15+0x2a6>
    14dc:	80 91 cb 02 	lds	r24, 0x02CB
    14e0:	8f 5f       	subi	r24, 0xFF	; 255
    14e2:	80 93 cb 02 	sts	0x02CB, r24
    14e6:	07 c0       	rjmp	.+14     	; 0x14f6 <__vector_15+0x2b4>
						else{
							tTime.bMonth=1;
    14e8:	80 93 cb 02 	sts	0x02CB, r24
							tTime.bYear++;  // non c' bisogno di impostare la data e il giorno, viene eseguito
    14ec:	80 91 cc 02 	lds	r24, 0x02CC
    14f0:	8f 5f       	subi	r24, 0xFF	; 255
    14f2:	80 93 cc 02 	sts	0x02CC, r24
											// automaticamente dall'ins, cio dai millisecondi.
						} // month
					} // day
					bDateChanged=1;
    14f6:	81 e0       	ldi	r24, 0x01	; 1
    14f8:	80 93 bd 02 	sts	0x02BD, r24
				}	// hour				
			}  // minute
			bTimeChanged=1;		// refresh quote every min for the minutes changing
    14fc:	81 e0       	ldi	r24, 0x01	; 1
    14fe:	80 93 ad 02 	sts	0x02AD, r24
		}	// second
	} // millisecond
	
	bPriLev = bOldPriLev;
    1502:	10 93 cd 02 	sts	0x02CD, r17
}
    1506:	ff 91       	pop	r31
    1508:	ef 91       	pop	r30
    150a:	bf 91       	pop	r27
    150c:	af 91       	pop	r26
    150e:	9f 91       	pop	r25
    1510:	8f 91       	pop	r24
    1512:	7f 91       	pop	r23
    1514:	6f 91       	pop	r22
    1516:	5f 91       	pop	r21
    1518:	4f 91       	pop	r20
    151a:	3f 91       	pop	r19
    151c:	2f 91       	pop	r18
    151e:	1f 91       	pop	r17
    1520:	0f 90       	pop	r0
    1522:	0f be       	out	0x3f, r0	; 63
    1524:	0f 90       	pop	r0
    1526:	1f 90       	pop	r1
    1528:	18 95       	reti

0000152a <checkDay>:
int isLeapYear(byte year){
	if(year % 4 == 0 && (year % 100 != 0 || year % 400 == 0)) return 1;
	return 0;
}

int checkDay(volatile time_date *time, volatile byte *days){	
    152a:	0f 93       	push	r16
    152c:	1f 93       	push	r17
    152e:	cf 93       	push	r28
    1530:	df 93       	push	r29
    1532:	ec 01       	movw	r28, r24
    1534:	8b 01       	movw	r16, r22
	/* se bDay supera il valore massimo del corrispondente bMonth,	 *
	 * esso viene portato al massimo valore consentito.				 */
	
	if(time->bDay >= days[time->bMonth-1]){
    1536:	9d 81       	ldd	r25, Y+5	; 0x05
    1538:	ee 81       	ldd	r30, Y+6	; 0x06
    153a:	f0 e0       	ldi	r31, 0x00	; 0
    153c:	31 97       	sbiw	r30, 0x01	; 1
    153e:	e6 0f       	add	r30, r22
    1540:	f7 1f       	adc	r31, r23
    1542:	80 81       	ld	r24, Z
    1544:	98 17       	cp	r25, r24
    1546:	d0 f0       	brcs	.+52     	; 0x157c <checkDay+0x52>
		if((time->bMonth == 2)&&(!isLeapYear(time->bYear)))
    1548:	8e 81       	ldd	r24, Y+6	; 0x06
    154a:	82 30       	cpi	r24, 0x02	; 2
    154c:	69 f4       	brne	.+26     	; 0x1568 <checkDay+0x3e>
    154e:	8f 81       	ldd	r24, Y+7	; 0x07
    1550:	0e 94 08 09 	call	0x1210	; 0x1210 <isLeapYear>
    1554:	00 97       	sbiw	r24, 0x00	; 0
    1556:	41 f4       	brne	.+16     	; 0x1568 <checkDay+0x3e>
			time->bDay = days[time->bMonth-1]-1;	// Caso Febbraio, anno non bisestile: bDays=28!
    1558:	ee 81       	ldd	r30, Y+6	; 0x06
    155a:	f0 e0       	ldi	r31, 0x00	; 0
    155c:	31 97       	sbiw	r30, 0x01	; 1
    155e:	e0 0f       	add	r30, r16
    1560:	f1 1f       	adc	r31, r17
    1562:	80 81       	ld	r24, Z
    1564:	81 50       	subi	r24, 0x01	; 1
    1566:	06 c0       	rjmp	.+12     	; 0x1574 <checkDay+0x4a>
		else
			time->bDay = days[time->bMonth-1];
    1568:	ee 81       	ldd	r30, Y+6	; 0x06
    156a:	f0 e0       	ldi	r31, 0x00	; 0
    156c:	31 97       	sbiw	r30, 0x01	; 1
    156e:	e0 0f       	add	r30, r16
    1570:	f1 1f       	adc	r31, r17
    1572:	80 81       	ld	r24, Z
    1574:	8d 83       	std	Y+5, r24	; 0x05
		
		return 1;
    1576:	21 e0       	ldi	r18, 0x01	; 1
    1578:	30 e0       	ldi	r19, 0x00	; 0
    157a:	02 c0       	rjmp	.+4      	; 0x1580 <checkDay+0x56>
	}
	return 0;
    157c:	20 e0       	ldi	r18, 0x00	; 0
    157e:	30 e0       	ldi	r19, 0x00	; 0
}
    1580:	c9 01       	movw	r24, r18
    1582:	df 91       	pop	r29
    1584:	cf 91       	pop	r28
    1586:	1f 91       	pop	r17
    1588:	0f 91       	pop	r16
    158a:	08 95       	ret

0000158c <toggleTimeColon>:

void toggleTimeColon(){
	if(bTimeCommaState){
    158c:	80 91 b7 02 	lds	r24, 0x02B7
    1590:	88 23       	and	r24, r24
    1592:	49 f0       	breq	.+18     	; 0x15a6 <toggleTimeColon+0x1a>
		LCDWriteStringXY(CLOCK_CURSOR_POSITION+2, 0, ":");
    1594:	8d e0       	ldi	r24, 0x0D	; 13
    1596:	60 e0       	ldi	r22, 0x00	; 0
    1598:	40 e5       	ldi	r20, 0x50	; 80
    159a:	51 e0       	ldi	r21, 0x01	; 1
    159c:	0e 94 d8 01 	call	0x3b0	; 0x3b0 <LCDWriteStringXY>
		bTimeCommaState=0;
    15a0:	10 92 b7 02 	sts	0x02B7, r1
    15a4:	08 95       	ret
	}else{
		LCDWriteStringXY(CLOCK_CURSOR_POSITION+2, 0, " ");
    15a6:	8d e0       	ldi	r24, 0x0D	; 13
    15a8:	60 e0       	ldi	r22, 0x00	; 0
    15aa:	42 e5       	ldi	r20, 0x52	; 82
    15ac:	51 e0       	ldi	r21, 0x01	; 1
    15ae:	0e 94 d8 01 	call	0x3b0	; 0x3b0 <LCDWriteStringXY>
		bTimeCommaState=1;
    15b2:	81 e0       	ldi	r24, 0x01	; 1
    15b4:	80 93 b7 02 	sts	0x02B7, r24
    15b8:	08 95       	ret

000015ba <main>:

/******************************************************************************/
/*********************************  Main  *************************************/
/******************************************************************************/

int main(void){
    15ba:	2f 92       	push	r2
    15bc:	3f 92       	push	r3
    15be:	4f 92       	push	r4
    15c0:	5f 92       	push	r5
    15c2:	6f 92       	push	r6
    15c4:	7f 92       	push	r7
    15c6:	8f 92       	push	r8
    15c8:	9f 92       	push	r9
    15ca:	af 92       	push	r10
    15cc:	bf 92       	push	r11
    15ce:	cf 92       	push	r12
    15d0:	df 92       	push	r13
    15d2:	ef 92       	push	r14
    15d4:	ff 92       	push	r15
    15d6:	0f 93       	push	r16
    15d8:	1f 93       	push	r17
    15da:	df 93       	push	r29
    15dc:	cf 93       	push	r28
    15de:	0f 92       	push	r0
    15e0:	cd b7       	in	r28, 0x3d	; 61
    15e2:	de b7       	in	r29, 0x3e	; 62
	bPriLev=PRI_MAIN;
    15e4:	89 e0       	ldi	r24, 0x09	; 9
    15e6:	80 93 cd 02 	sts	0x02CD, r24
	
	tTime.wMilli=0;
    15ea:	10 92 c6 02 	sts	0x02C6, r1
    15ee:	10 92 c5 02 	sts	0x02C5, r1
	tTime.bSec=0;
    15f2:	10 92 c7 02 	sts	0x02C7, r1
	tTime.bMin=0;
    15f6:	10 92 c8 02 	sts	0x02C8, r1
	tTime.bHour=0;
    15fa:	10 92 c9 02 	sts	0x02C9, r1
	tTime.bDay=7;
    15fe:	87 e0       	ldi	r24, 0x07	; 7
    1600:	80 93 ca 02 	sts	0x02CA, r24
	tTime.bMonth=8;
    1604:	88 e0       	ldi	r24, 0x08	; 8
    1606:	80 93 cb 02 	sts	0x02CB, r24
	tTime.bYear=11;
    160a:	8b e0       	ldi	r24, 0x0B	; 11
    160c:	80 93 cc 02 	sts	0x02CC, r24
	
	_init_AVR();
    1610:	0e 94 2e 05 	call	0xa5c	; 0xa5c <_init_AVR>
	
	
	longword address = 0x00F7;
	
	
	EEPROM_writeData( address, &data, sizeof(float), MICROCHIP_EEPROM_WRITE_ACK_TYPE );
    1614:	67 ef       	ldi	r22, 0xF7	; 247
    1616:	70 e0       	ldi	r23, 0x00	; 0
    1618:	80 e0       	ldi	r24, 0x00	; 0
    161a:	90 e0       	ldi	r25, 0x00	; 0
    161c:	4e e7       	ldi	r20, 0x7E	; 126
    161e:	52 e0       	ldi	r21, 0x02	; 2
    1620:	24 e0       	ldi	r18, 0x04	; 4
    1622:	01 e0       	ldi	r16, 0x01	; 1
    1624:	0e 94 ca 03 	call	0x794	; 0x794 <EEPROM_writeData>
	LCDClear();
    1628:	81 e0       	ldi	r24, 0x01	; 1
    162a:	60 e0       	ldi	r22, 0x00	; 0
    162c:	0e 94 04 01 	call	0x208	; 0x208 <LCDByte>
	LCDWriteStringXY(0,0,"printed");
    1630:	80 e0       	ldi	r24, 0x00	; 0
    1632:	60 e0       	ldi	r22, 0x00	; 0
    1634:	44 e5       	ldi	r20, 0x54	; 84
    1636:	51 e0       	ldi	r21, 0x01	; 1
    1638:	0e 94 d8 01 	call	0x3b0	; 0x3b0 <LCDWriteStringXY>
    163c:	2f ef       	ldi	r18, 0xFF	; 255
    163e:	35 ea       	ldi	r19, 0xA5	; 165
    1640:	4e e0       	ldi	r20, 0x0E	; 14
    1642:	21 50       	subi	r18, 0x01	; 1
    1644:	30 40       	sbci	r19, 0x00	; 0
    1646:	40 40       	sbci	r20, 0x00	; 0
    1648:	e1 f7       	brne	.-8      	; 0x1642 <main+0x88>
    164a:	00 c0       	rjmp	.+0      	; 0x164c <main+0x92>
    164c:	00 00       	nop
	_delay_ms(300);
	//byte* pRead = &read;
	EEPROM_readData(address, &read, sizeof(float), MICROCHIP_EEPROM_READ_ACK_TYPE);
    164e:	67 ef       	ldi	r22, 0xF7	; 247
    1650:	70 e0       	ldi	r23, 0x00	; 0
    1652:	80 e0       	ldi	r24, 0x00	; 0
    1654:	90 e0       	ldi	r25, 0x00	; 0
    1656:	48 ee       	ldi	r20, 0xE8	; 232
    1658:	52 e0       	ldi	r21, 0x02	; 2
    165a:	24 e0       	ldi	r18, 0x04	; 4
    165c:	00 e0       	ldi	r16, 0x00	; 0
    165e:	0e 94 71 04 	call	0x8e2	; 0x8e2 <EEPROM_readData>
	
	
	sprintf(str, "read: %05.1f", read);
    1662:	4d b7       	in	r20, 0x3d	; 61
    1664:	5e b7       	in	r21, 0x3e	; 62
    1666:	48 50       	subi	r20, 0x08	; 8
    1668:	50 40       	sbci	r21, 0x00	; 0
    166a:	0f b6       	in	r0, 0x3f	; 63
    166c:	f8 94       	cli
    166e:	5e bf       	out	0x3e, r21	; 62
    1670:	0f be       	out	0x3f, r0	; 63
    1672:	4d bf       	out	0x3d, r20	; 61
    1674:	ed b7       	in	r30, 0x3d	; 61
    1676:	fe b7       	in	r31, 0x3e	; 62
    1678:	31 96       	adiw	r30, 0x01	; 1
    167a:	13 ee       	ldi	r17, 0xE3	; 227
    167c:	c1 2e       	mov	r12, r17
    167e:	11 e0       	ldi	r17, 0x01	; 1
    1680:	d1 2e       	mov	r13, r17
    1682:	ad b7       	in	r26, 0x3d	; 61
    1684:	be b7       	in	r27, 0x3e	; 62
    1686:	12 96       	adiw	r26, 0x02	; 2
    1688:	dc 92       	st	X, r13
    168a:	ce 92       	st	-X, r12
    168c:	11 97       	sbiw	r26, 0x01	; 1
    168e:	8c e5       	ldi	r24, 0x5C	; 92
    1690:	91 e0       	ldi	r25, 0x01	; 1
    1692:	93 83       	std	Z+3, r25	; 0x03
    1694:	82 83       	std	Z+2, r24	; 0x02
    1696:	80 91 e8 02 	lds	r24, 0x02E8
    169a:	90 91 e9 02 	lds	r25, 0x02E9
    169e:	a0 91 ea 02 	lds	r26, 0x02EA
    16a2:	b0 91 eb 02 	lds	r27, 0x02EB
    16a6:	84 83       	std	Z+4, r24	; 0x04
    16a8:	95 83       	std	Z+5, r25	; 0x05
    16aa:	a6 83       	std	Z+6, r26	; 0x06
    16ac:	b7 83       	std	Z+7, r27	; 0x07
    16ae:	0e 94 03 1c 	call	0x3806	; 0x3806 <sprintf>
	//sprintf(str, "read: %d", b);
	LCDWriteStringXY(0,1,str);
    16b2:	ed b7       	in	r30, 0x3d	; 61
    16b4:	fe b7       	in	r31, 0x3e	; 62
    16b6:	38 96       	adiw	r30, 0x08	; 8
    16b8:	0f b6       	in	r0, 0x3f	; 63
    16ba:	f8 94       	cli
    16bc:	fe bf       	out	0x3e, r31	; 62
    16be:	0f be       	out	0x3f, r0	; 63
    16c0:	ed bf       	out	0x3d, r30	; 61
    16c2:	80 e0       	ldi	r24, 0x00	; 0
    16c4:	61 e0       	ldi	r22, 0x01	; 1
    16c6:	a6 01       	movw	r20, r12
    16c8:	0e 94 d8 01 	call	0x3b0	; 0x3b0 <LCDWriteStringXY>
    16cc:	2f ef       	ldi	r18, 0xFF	; 255
    16ce:	33 ed       	ldi	r19, 0xD3	; 211
    16d0:	40 e3       	ldi	r20, 0x30	; 48
    16d2:	21 50       	subi	r18, 0x01	; 1
    16d4:	30 40       	sbci	r19, 0x00	; 0
    16d6:	40 40       	sbci	r20, 0x00	; 0
    16d8:	e1 f7       	brne	.-8      	; 0x16d2 <main+0x118>
    16da:	00 c0       	rjmp	.+0      	; 0x16dc <main+0x122>
    16dc:	00 00       	nop
	_delay_ms(1000);
		
	byte highAddress;
	LCDClear();
    16de:	81 e0       	ldi	r24, 0x01	; 1
    16e0:	60 e0       	ldi	r22, 0x00	; 0
    16e2:	0e 94 04 01 	call	0x208	; 0x208 <LCDByte>
	LCDWriteStringXY(0,0,"printing:");
    16e6:	80 e0       	ldi	r24, 0x00	; 0
    16e8:	60 e0       	ldi	r22, 0x00	; 0
    16ea:	49 e6       	ldi	r20, 0x69	; 105
    16ec:	51 e0       	ldi	r21, 0x01	; 1
    16ee:	0e 94 d8 01 	call	0x3b0	; 0x3b0 <LCDWriteStringXY>
    16f2:	8f ef       	ldi	r24, 0xFF	; 255
    16f4:	97 e8       	ldi	r25, 0x87	; 135
    16f6:	a3 e1       	ldi	r26, 0x13	; 19
    16f8:	81 50       	subi	r24, 0x01	; 1
    16fa:	90 40       	sbci	r25, 0x00	; 0
    16fc:	a0 40       	sbci	r26, 0x00	; 0
    16fe:	e1 f7       	brne	.-8      	; 0x16f8 <main+0x13e>
    1700:	00 c0       	rjmp	.+0      	; 0x1702 <main+0x148>
    1702:	00 00       	nop
	_delay_ms(400);	
	for(i = 0; i<5; i++){
    1704:	10 92 83 02 	sts	0x0283, r1
    1708:	10 92 84 02 	sts	0x0284, r1
    170c:	10 92 85 02 	sts	0x0285, r1
    1710:	10 92 86 02 	sts	0x0286, r1
	tTime.bYear=11;
	
	_init_AVR();
	
	
	longword address = 0x00F7;
    1714:	b7 ef       	ldi	r27, 0xF7	; 247
    1716:	eb 2e       	mov	r14, r27
    1718:	f1 2c       	mov	r15, r1
    171a:	01 2d       	mov	r16, r1
    171c:	11 2d       	mov	r17, r1
		//LCDClear();
		
		EEPROM_writeByte(address, i+1, MICROCHIP_EEPROM_WRITE_ACK_TYPE);
		_delay_ms(20);
		readValues[i] = EEPROM_readByte(address, MICROCHIP_EEPROM_READ_ACK_TYPE);
		sprintf(str, "%5lx - %d",address, readValues[i]);		// !!! :   "%lx" permette di prendere come argomento un long!
    171e:	a3 e7       	ldi	r26, 0x73	; 115
    1720:	6a 2e       	mov	r6, r26
    1722:	a1 e0       	ldi	r26, 0x01	; 1
    1724:	7a 2e       	mov	r7, r26
		
	byte highAddress;
	LCDClear();
	LCDWriteStringXY(0,0,"printing:");
	_delay_ms(400);	
	for(i = 0; i<5; i++){
    1726:	7c c0       	rjmp	.+248    	; 0x1820 <main+0x266>
		//LCDClear();
		
		EEPROM_writeByte(address, i+1, MICROCHIP_EEPROM_WRITE_ACK_TYPE);
    1728:	40 91 83 02 	lds	r20, 0x0283
    172c:	50 91 84 02 	lds	r21, 0x0284
    1730:	60 91 85 02 	lds	r22, 0x0285
    1734:	70 91 86 02 	lds	r23, 0x0286
    1738:	4f 5f       	subi	r20, 0xFF	; 255
    173a:	c8 01       	movw	r24, r16
    173c:	b7 01       	movw	r22, r14
    173e:	21 e0       	ldi	r18, 0x01	; 1
    1740:	0e 94 7e 03 	call	0x6fc	; 0x6fc <EEPROM_writeByte>
    1744:	2f ef       	ldi	r18, 0xFF	; 255
    1746:	39 ef       	ldi	r19, 0xF9	; 249
    1748:	40 e0       	ldi	r20, 0x00	; 0
    174a:	21 50       	subi	r18, 0x01	; 1
    174c:	30 40       	sbci	r19, 0x00	; 0
    174e:	40 40       	sbci	r20, 0x00	; 0
    1750:	e1 f7       	brne	.-8      	; 0x174a <main+0x190>
    1752:	00 c0       	rjmp	.+0      	; 0x1754 <main+0x19a>
    1754:	00 00       	nop
		_delay_ms(20);
		readValues[i] = EEPROM_readByte(address, MICROCHIP_EEPROM_READ_ACK_TYPE);
    1756:	80 90 83 02 	lds	r8, 0x0283
    175a:	90 90 84 02 	lds	r9, 0x0284
    175e:	a0 90 85 02 	lds	r10, 0x0285
    1762:	b0 90 86 02 	lds	r11, 0x0286
    1766:	c8 01       	movw	r24, r16
    1768:	b7 01       	movw	r22, r14
    176a:	40 e0       	ldi	r20, 0x00	; 0
    176c:	0e 94 29 04 	call	0x852	; 0x852 <EEPROM_readByte>
    1770:	f4 01       	movw	r30, r8
    1772:	e6 5f       	subi	r30, 0xF6	; 246
    1774:	fc 4f       	sbci	r31, 0xFC	; 252
    1776:	80 83       	st	Z, r24
		sprintf(str, "%5lx - %d",address, readValues[i]);		// !!! :   "%lx" permette di prendere come argomento un long!
    1778:	80 91 83 02 	lds	r24, 0x0283
    177c:	90 91 84 02 	lds	r25, 0x0284
    1780:	a0 91 85 02 	lds	r26, 0x0285
    1784:	b0 91 86 02 	lds	r27, 0x0286
    1788:	86 5f       	subi	r24, 0xF6	; 246
    178a:	9c 4f       	sbci	r25, 0xFC	; 252
    178c:	dc 01       	movw	r26, r24
    178e:	8c 91       	ld	r24, X
    1790:	ed b7       	in	r30, 0x3d	; 61
    1792:	fe b7       	in	r31, 0x3e	; 62
    1794:	3a 97       	sbiw	r30, 0x0a	; 10
    1796:	0f b6       	in	r0, 0x3f	; 63
    1798:	f8 94       	cli
    179a:	fe bf       	out	0x3e, r31	; 62
    179c:	0f be       	out	0x3f, r0	; 63
    179e:	ed bf       	out	0x3d, r30	; 61
    17a0:	31 96       	adiw	r30, 0x01	; 1
    17a2:	ad b7       	in	r26, 0x3d	; 61
    17a4:	be b7       	in	r27, 0x3e	; 62
    17a6:	11 96       	adiw	r26, 0x01	; 1
    17a8:	cc 92       	st	X, r12
    17aa:	11 97       	sbiw	r26, 0x01	; 1
    17ac:	12 96       	adiw	r26, 0x02	; 2
    17ae:	dc 92       	st	X, r13
    17b0:	73 82       	std	Z+3, r7	; 0x03
    17b2:	62 82       	std	Z+2, r6	; 0x02
    17b4:	e4 82       	std	Z+4, r14	; 0x04
    17b6:	f5 82       	std	Z+5, r15	; 0x05
    17b8:	06 83       	std	Z+6, r16	; 0x06
    17ba:	17 83       	std	Z+7, r17	; 0x07
    17bc:	80 87       	std	Z+8, r24	; 0x08
    17be:	11 86       	std	Z+9, r1	; 0x09
    17c0:	0e 94 03 1c 	call	0x3806	; 0x3806 <sprintf>
		
		address++;
    17c4:	08 94       	sec
    17c6:	e1 1c       	adc	r14, r1
    17c8:	f1 1c       	adc	r15, r1
    17ca:	01 1d       	adc	r16, r1
    17cc:	11 1d       	adc	r17, r1
		LCDWriteStringXY(0,0,str);
    17ce:	ed b7       	in	r30, 0x3d	; 61
    17d0:	fe b7       	in	r31, 0x3e	; 62
    17d2:	3a 96       	adiw	r30, 0x0a	; 10
    17d4:	0f b6       	in	r0, 0x3f	; 63
    17d6:	f8 94       	cli
    17d8:	fe bf       	out	0x3e, r31	; 62
    17da:	0f be       	out	0x3f, r0	; 63
    17dc:	ed bf       	out	0x3d, r30	; 61
    17de:	80 e0       	ldi	r24, 0x00	; 0
    17e0:	60 e0       	ldi	r22, 0x00	; 0
    17e2:	a6 01       	movw	r20, r12
    17e4:	0e 94 d8 01 	call	0x3b0	; 0x3b0 <LCDWriteStringXY>
    17e8:	2f ef       	ldi	r18, 0xFF	; 255
    17ea:	37 e8       	ldi	r19, 0x87	; 135
    17ec:	43 e1       	ldi	r20, 0x13	; 19
    17ee:	21 50       	subi	r18, 0x01	; 1
    17f0:	30 40       	sbci	r19, 0x00	; 0
    17f2:	40 40       	sbci	r20, 0x00	; 0
    17f4:	e1 f7       	brne	.-8      	; 0x17ee <main+0x234>
    17f6:	00 c0       	rjmp	.+0      	; 0x17f8 <main+0x23e>
    17f8:	00 00       	nop
		
	byte highAddress;
	LCDClear();
	LCDWriteStringXY(0,0,"printing:");
	_delay_ms(400);	
	for(i = 0; i<5; i++){
    17fa:	80 91 83 02 	lds	r24, 0x0283
    17fe:	90 91 84 02 	lds	r25, 0x0284
    1802:	a0 91 85 02 	lds	r26, 0x0285
    1806:	b0 91 86 02 	lds	r27, 0x0286
    180a:	01 96       	adiw	r24, 0x01	; 1
    180c:	a1 1d       	adc	r26, r1
    180e:	b1 1d       	adc	r27, r1
    1810:	80 93 83 02 	sts	0x0283, r24
    1814:	90 93 84 02 	sts	0x0284, r25
    1818:	a0 93 85 02 	sts	0x0285, r26
    181c:	b0 93 86 02 	sts	0x0286, r27
    1820:	80 91 83 02 	lds	r24, 0x0283
    1824:	90 91 84 02 	lds	r25, 0x0284
    1828:	a0 91 85 02 	lds	r26, 0x0285
    182c:	b0 91 86 02 	lds	r27, 0x0286
    1830:	85 30       	cpi	r24, 0x05	; 5
    1832:	91 05       	cpc	r25, r1
    1834:	a1 05       	cpc	r26, r1
    1836:	b1 05       	cpc	r27, r1
    1838:	08 f4       	brcc	.+2      	; 0x183c <main+0x282>
    183a:	76 cf       	rjmp	.-276    	; 0x1728 <main+0x16e>
								case 2:
									if(--tTimeEditing.bSec>60) tTimeEditing.bSec=59;
									break;
								default: break;
							}
							sprintf(str, "%02d:%02d:%02d", tTimeEditing.bHour, tTimeEditing.bMin, tTimeEditing.bSec);
    183c:	fc e9       	ldi	r31, 0x9C	; 156
    183e:	cf 2e       	mov	r12, r31
    1840:	f1 e0       	ldi	r31, 0x01	; 1
    1842:	df 2e       	mov	r13, r31
							switch ( bSelection ){
								case 0:
									if(--tTimeEditing.bHour>24) tTimeEditing.bHour=23; // Sarebbe "<0" ma queste variabili non vengono interpretate come con segno
									break;
								case 1:
									if(--tTimeEditing.bMin>60) tTimeEditing.bMin=59;
    1844:	eb e3       	ldi	r30, 0x3B	; 59
    1846:	ae 2e       	mov	r10, r30
							
						case BTN_B:
							bBtn = NO_BTN;
							switch ( bSelection ){
								case 0:
									if(--tTimeEditing.bHour>24) tTimeEditing.bHour=23; // Sarebbe "<0" ma queste variabili non vengono interpretate come con segno
    1848:	77 e1       	ldi	r23, 0x17	; 23
    184a:	57 2e       	mov	r5, r23
							}
							bBtn = NO_BTN;
							break;
							
						case BTN_C_LONG:
							bState=STATE_EDIT_TIME_CONFIRM;
    184c:	65 e0       	ldi	r22, 0x05	; 5
    184e:	46 2e       	mov	r4, r22
					switch( bBtn ){
						case NO_BTN:
							if( bPrintQuotes ){
								bPrintQuotes=0;
								LCDClear();
								tTimeEditing = tTime;
    1850:	58 e0       	ldi	r21, 0x08	; 8
    1852:	35 2e       	mov	r3, r21
									tTimeEditing.bHour++;
									tTimeEditing.bHour %= 24;
									break;
								case 1: // Minutes
									tTimeEditing.bMin++;
									tTimeEditing.bMin %= 60;
    1854:	4c e3       	ldi	r20, 0x3C	; 60
    1856:	94 2e       	mov	r9, r20
						case BTN_A:
							bBtn = NO_BTN;
							switch ( bSelection ){
								case 0: // Hours
									tTimeEditing.bHour++;
									tTimeEditing.bHour %= 24;
    1858:	38 e1       	ldi	r19, 0x18	; 24
    185a:	23 2e       	mov	r2, r19
						}
						break;
						
					case BTN_A:
						if( ++bHumAlarmThresholdEditing > 99 ) bHumAlarmThresholdEditing = 0;
						sprintf(str, "%02d", bHumAlarmThresholdEditing);
    185c:	07 e2       	ldi	r16, 0x27	; 39
    185e:	11 e0       	ldi	r17, 0x01	; 1
						LCD_CURSOR_LEFT_N(1);
						bBtn=0;
						break;
						
					case BTN_B:
						if( --bHumAlarmThresholdEditing > 100 ) bHumAlarmThresholdEditing=99;
    1860:	23 e6       	ldi	r18, 0x63	; 99
    1862:	82 2e       	mov	r8, r18
					case NO_BTN:
						if( bPrintQuotes ){
							bPrintQuotes=0;
							LCDClear();
							bHumAlarmThresholdEditing = bHumAlarmThreshold;
							sprintf(str, "RH= %02d", bHumAlarmThresholdEditing);
    1864:	99 eb       	ldi	r25, 0xB9	; 185
    1866:	69 2e       	mov	r6, r25
    1868:	91 e0       	ldi	r25, 0x01	; 1
    186a:	79 2e       	mov	r7, r25
						LCD_CURSOR_LEFT_N(1);
						bBtn=0;
						break;
						
					case BTN_C_LONG:
						bState = STATE_EDIT_HUM_ON_TH_CONFIRM;
    186c:	87 e0       	ldi	r24, 0x07	; 7
    186e:	b8 2e       	mov	r11, r24
								if(--tTimeEditing.bYear < 1) tTimeEditing.bYear=99;
								checkDay(&tTimeEditing, baDays);
								break;
							default: break;
						}
						sprintf(str, "%02d/%02d/%02d", tTimeEditing.bDay, tTimeEditing.bMonth, tTimeEditing.bYear);
    1870:	bf e7       	ldi	r27, 0x7F	; 127
    1872:	eb 2e       	mov	r14, r27
    1874:	b1 e0       	ldi	r27, 0x01	; 1
    1876:	fb 2e       	mov	r15, r27
		_delay_ms(400);
	}
	
	while(1) { /* Infinite Loop */
			
		switch( bState ){
    1878:	20 91 82 02 	lds	r18, 0x0282
    187c:	24 30       	cpi	r18, 0x04	; 4
    187e:	09 f4       	brne	.+2      	; 0x1882 <main+0x2c8>
    1880:	c7 c3       	rjmp	.+1934   	; 0x2010 <main+0xa56>
    1882:	25 30       	cpi	r18, 0x05	; 5
    1884:	58 f4       	brcc	.+22     	; 0x189c <main+0x2e2>
    1886:	21 30       	cpi	r18, 0x01	; 1
    1888:	e9 f1       	breq	.+122    	; 0x1904 <main+0x34a>
    188a:	21 30       	cpi	r18, 0x01	; 1
    188c:	d8 f0       	brcs	.+54     	; 0x18c4 <main+0x30a>
    188e:	22 30       	cpi	r18, 0x02	; 2
    1890:	09 f4       	brne	.+2      	; 0x1894 <main+0x2da>
    1892:	e2 c0       	rjmp	.+452    	; 0x1a58 <main+0x49e>
    1894:	23 30       	cpi	r18, 0x03	; 3
    1896:	81 f7       	brne	.-32     	; 0x1878 <main+0x2be>
    1898:	0c 94 b1 14 	jmp	0x2962	; 0x2962 <main+0x13a8>
    189c:	27 30       	cpi	r18, 0x07	; 7
    189e:	11 f4       	brne	.+4      	; 0x18a4 <main+0x2ea>
    18a0:	0c 94 b1 14 	jmp	0x2962	; 0x2962 <main+0x13a8>
    18a4:	28 30       	cpi	r18, 0x08	; 8
    18a6:	38 f4       	brcc	.+14     	; 0x18b6 <main+0x2fc>
    18a8:	25 30       	cpi	r18, 0x05	; 5
    18aa:	11 f4       	brne	.+4      	; 0x18b0 <main+0x2f6>
    18ac:	0c 94 b1 14 	jmp	0x2962	; 0x2962 <main+0x13a8>
    18b0:	26 30       	cpi	r18, 0x06	; 6
    18b2:	11 f7       	brne	.-60     	; 0x1878 <main+0x2be>
    18b4:	df c5       	rjmp	.+3006   	; 0x2474 <main+0xeba>
    18b6:	28 30       	cpi	r18, 0x08	; 8
    18b8:	09 f4       	brne	.+2      	; 0x18bc <main+0x302>
    18ba:	14 c7       	rjmp	.+3624   	; 0x26e4 <main+0x112a>
    18bc:	29 30       	cpi	r18, 0x09	; 9
    18be:	e1 f6       	brne	.-72     	; 0x1878 <main+0x2be>
    18c0:	0c 94 b1 14 	jmp	0x2962	; 0x2962 <main+0x13a8>

/*----------------------------------------------------------__IDLE__------------------------------------*/
			case STATE_IDLE:
				switch( bBtn ){
    18c4:	80 91 18 03 	lds	r24, 0x0318
    18c8:	87 30       	cpi	r24, 0x07	; 7
    18ca:	30 f4       	brcc	.+12     	; 0x18d8 <main+0x31e>
    18cc:	82 30       	cpi	r24, 0x02	; 2
    18ce:	08 f0       	brcs	.+2      	; 0x18d2 <main+0x318>
    18d0:	bc c0       	rjmp	.+376    	; 0x1a4a <main+0x490>
    18d2:	88 23       	and	r24, r24
    18d4:	21 f0       	breq	.+8      	; 0x18de <main+0x324>
    18d6:	d0 cf       	rjmp	.-96     	; 0x1878 <main+0x2be>
    18d8:	87 30       	cpi	r24, 0x07	; 7
    18da:	71 f6       	brne	.-100    	; 0x1878 <main+0x2be>
    18dc:	0b c0       	rjmp	.+22     	; 0x18f4 <main+0x33a>
					case NO_BTN:
						if( bTimeColonToToggle ){ toggleTimeColon(); bTimeColonToToggle=0; }
    18de:	80 91 bf 02 	lds	r24, 0x02BF
    18e2:	88 23       	and	r24, r24
    18e4:	21 f0       	breq	.+8      	; 0x18ee <main+0x334>
    18e6:	0e 94 c6 0a 	call	0x158c	; 0x158c <toggleTimeColon>
    18ea:	10 92 bf 02 	sts	0x02BF, r1
						refreshQuote();
    18ee:	0e 94 b6 06 	call	0xd6c	; 0xd6c <refreshQuote>
    18f2:	8a c3       	rjmp	.+1812   	; 0x2008 <main+0xa4e>
						START_BACKLIGHT();
						bBtn=NO_BTN;
						break;
						
					case BTN_C_LONG:
						bState = STATE_MENU;
    18f4:	81 e0       	ldi	r24, 0x01	; 1
    18f6:	80 93 82 02 	sts	0x0282, r24
						BACKLIGHT_ON();
    18fa:	5e 9a       	sbi	0x0b, 6	; 11
						bBacklightActive=1;
    18fc:	80 93 92 02 	sts	0x0292, r24
    1900:	0c 94 ad 14 	jmp	0x295a	; 0x295a <main+0x13a0>
				}
				break;
				
/*----------------------------------------------------------__MENU__----------------------------------*/				
			case STATE_MENU:
				switch( bBtn ){
    1904:	80 91 18 03 	lds	r24, 0x0318
    1908:	84 30       	cpi	r24, 0x04	; 4
    190a:	09 f4       	brne	.+2      	; 0x190e <main+0x354>
    190c:	54 c0       	rjmp	.+168    	; 0x19b6 <main+0x3fc>
    190e:	85 30       	cpi	r24, 0x05	; 5
    1910:	30 f4       	brcc	.+12     	; 0x191e <main+0x364>
    1912:	88 23       	and	r24, r24
    1914:	59 f0       	breq	.+22     	; 0x192c <main+0x372>
    1916:	82 30       	cpi	r24, 0x02	; 2
    1918:	09 f0       	breq	.+2      	; 0x191c <main+0x362>
    191a:	ae cf       	rjmp	.-164    	; 0x1878 <main+0x2be>
    191c:	3d c0       	rjmp	.+122    	; 0x1998 <main+0x3de>
    191e:	86 30       	cpi	r24, 0x06	; 6
    1920:	09 f4       	brne	.+2      	; 0x1924 <main+0x36a>
    1922:	5f c0       	rjmp	.+190    	; 0x19e2 <main+0x428>
    1924:	87 30       	cpi	r24, 0x07	; 7
    1926:	09 f0       	breq	.+2      	; 0x192a <main+0x370>
    1928:	a7 cf       	rjmp	.-178    	; 0x1878 <main+0x2be>
    192a:	72 c0       	rjmp	.+228    	; 0x1a10 <main+0x456>
					case NO_BTN:
						if( bSelectionMenuChanged || bPrintQuotes ){
    192c:	80 91 ce 02 	lds	r24, 0x02CE
    1930:	88 23       	and	r24, r24
    1932:	29 f4       	brne	.+10     	; 0x193e <main+0x384>
    1934:	80 91 cf 02 	lds	r24, 0x02CF
    1938:	88 23       	and	r24, r24
    193a:	09 f4       	brne	.+2      	; 0x193e <main+0x384>
    193c:	9d cf       	rjmp	.-198    	; 0x1878 <main+0x2be>
							bPrintQuotes=0;
    193e:	10 92 cf 02 	sts	0x02CF, r1
							bSelectionMenuChanged=0;
    1942:	10 92 ce 02 	sts	0x02CE, r1
							LCDWriteStringXY(0,0,"-");
    1946:	80 e0       	ldi	r24, 0x00	; 0
    1948:	60 e0       	ldi	r22, 0x00	; 0
    194a:	4d e7       	ldi	r20, 0x7D	; 125
    194c:	51 e0       	ldi	r21, 0x01	; 1
    194e:	0e 94 d8 01 	call	0x3b0	; 0x3b0 <LCDWriteStringXY>
							LCDWriteStringXY(1,0, options[bSelectionMenu]);
    1952:	40 91 f7 02 	lds	r20, 0x02F7
    1956:	50 e0       	ldi	r21, 0x00	; 0
    1958:	a4 e0       	ldi	r26, 0x04	; 4
    195a:	44 0f       	add	r20, r20
    195c:	55 1f       	adc	r21, r21
    195e:	aa 95       	dec	r26
    1960:	e1 f7       	brne	.-8      	; 0x195a <main+0x3a0>
    1962:	4e 50       	subi	r20, 0x0E	; 14
    1964:	5e 4f       	sbci	r21, 0xFE	; 254
    1966:	81 e0       	ldi	r24, 0x01	; 1
    1968:	60 e0       	ldi	r22, 0x00	; 0
    196a:	0e 94 d8 01 	call	0x3b0	; 0x3b0 <LCDWriteStringXY>
							LCDWriteStringXY(0,1," ");
    196e:	80 e0       	ldi	r24, 0x00	; 0
    1970:	61 e0       	ldi	r22, 0x01	; 1
    1972:	42 e5       	ldi	r20, 0x52	; 82
    1974:	51 e0       	ldi	r21, 0x01	; 1
    1976:	0e 94 d8 01 	call	0x3b0	; 0x3b0 <LCDWriteStringXY>
							LCDWriteStringXY(1,1, options[bSelectionMenu+1]);
    197a:	40 91 f7 02 	lds	r20, 0x02F7
    197e:	50 e0       	ldi	r21, 0x00	; 0
    1980:	f4 e0       	ldi	r31, 0x04	; 4
    1982:	44 0f       	add	r20, r20
    1984:	55 1f       	adc	r21, r21
    1986:	fa 95       	dec	r31
    1988:	e1 f7       	brne	.-8      	; 0x1982 <main+0x3c8>
    198a:	4e 5f       	subi	r20, 0xFE	; 254
    198c:	5d 4f       	sbci	r21, 0xFD	; 253
    198e:	81 e0       	ldi	r24, 0x01	; 1
    1990:	61 e0       	ldi	r22, 0x01	; 1
    1992:	0e 94 d8 01 	call	0x3b0	; 0x3b0 <LCDWriteStringXY>
    1996:	70 cf       	rjmp	.-288    	; 0x1878 <main+0x2be>
						}
						break;
					
					case BTN_A:
						bSelectionMenu++;
    1998:	80 91 f7 02 	lds	r24, 0x02F7
    199c:	8f 5f       	subi	r24, 0xFF	; 255
    199e:	80 93 f7 02 	sts	0x02F7, r24
						bSelectionMenu %= NUMBER_OF_OPTIONS;
    19a2:	80 91 f7 02 	lds	r24, 0x02F7
    19a6:	6b 2d       	mov	r22, r11
    19a8:	0e 94 7f 1a 	call	0x34fe	; 0x34fe <__udivmodqi4>
    19ac:	90 93 f7 02 	sts	0x02F7, r25
						bSelectionMenuChanged=1;
    19b0:	20 93 ce 02 	sts	0x02CE, r18
    19b4:	d2 c7       	rjmp	.+4004   	; 0x295a <main+0x13a0>
						bBtn=NO_BTN;
						break;
					
					case BTN_B:
						if( bSelectionMenu>0 ) bSelectionMenu--;
    19b6:	80 91 f7 02 	lds	r24, 0x02F7
    19ba:	88 23       	and	r24, r24
    19bc:	21 f0       	breq	.+8      	; 0x19c6 <main+0x40c>
    19be:	80 91 f7 02 	lds	r24, 0x02F7
    19c2:	81 50       	subi	r24, 0x01	; 1
    19c4:	01 c0       	rjmp	.+2      	; 0x19c8 <main+0x40e>
						else bSelectionMenu=(NUMBER_OF_OPTIONS-1);
    19c6:	86 e0       	ldi	r24, 0x06	; 6
    19c8:	80 93 f7 02 	sts	0x02F7, r24
						bSelectionMenu %= NUMBER_OF_OPTIONS;
    19cc:	80 91 f7 02 	lds	r24, 0x02F7
    19d0:	6b 2d       	mov	r22, r11
    19d2:	0e 94 7f 1a 	call	0x34fe	; 0x34fe <__udivmodqi4>
    19d6:	90 93 f7 02 	sts	0x02F7, r25
						bSelectionMenuChanged=1;
    19da:	81 e0       	ldi	r24, 0x01	; 1
    19dc:	80 93 ce 02 	sts	0x02CE, r24
    19e0:	bc c7       	rjmp	.+3960   	; 0x295a <main+0x13a0>
						bBtn=NO_BTN;
						break;
					
					case BTN_C:
						switch( bSelectionMenu ){
    19e2:	90 91 f7 02 	lds	r25, 0x02F7
    19e6:	91 30       	cpi	r25, 0x01	; 1
    19e8:	81 f0       	breq	.+32     	; 0x1a0a <main+0x450>
    19ea:	91 30       	cpi	r25, 0x01	; 1
    19ec:	08 f4       	brcc	.+2      	; 0x19f0 <main+0x436>
    19ee:	08 c3       	rjmp	.+1552   	; 0x2000 <main+0xa46>
    19f0:	92 30       	cpi	r25, 0x02	; 2
    19f2:	21 f0       	breq	.+8      	; 0x19fc <main+0x442>
    19f4:	93 30       	cpi	r25, 0x03	; 3
    19f6:	09 f0       	breq	.+2      	; 0x19fa <main+0x440>
    19f8:	07 c3       	rjmp	.+1550   	; 0x2008 <main+0xa4e>
    19fa:	03 c0       	rjmp	.+6      	; 0x1a02 <main+0x448>
							case SEL_DATE:
								bState = STATE_EDIT_DATE;
    19fc:	90 93 82 02 	sts	0x0282, r25
    1a00:	01 c3       	rjmp	.+1538   	; 0x2004 <main+0xa4a>
								bBtn = NO_BTN;
								break;
								
							case SEL_TIME:
								bState = STATE_EDIT_TIME;
    1a02:	34 e0       	ldi	r19, 0x04	; 4
    1a04:	30 93 82 02 	sts	0x0282, r19
    1a08:	fd c2       	rjmp	.+1530   	; 0x2004 <main+0xa4a>
								bState = STATE_EDIT_HUM_ON_TH;
								bBtn = NO_BTN;
								break;
								
							case SEL_HUM_TH_2:
								bState = STATE_EDIT_HUM_AL_TH;
    1a0a:	30 92 82 02 	sts	0x0282, r3
    1a0e:	fa c2       	rjmp	.+1524   	; 0x2004 <main+0xa4a>
						}
						bPrintQuotes=1;
						break;
					
					case BTN_C_LONG:
						bState = STATE_IDLE;
    1a10:	10 92 82 02 	sts	0x0282, r1
						//init_LCD(0);		// Initialize the LCD, but we have already powered it up.
						LCD_RESET();
    1a14:	81 e0       	ldi	r24, 0x01	; 1
    1a16:	60 e0       	ldi	r22, 0x00	; 0
    1a18:	29 83       	std	Y+1, r18	; 0x01
    1a1a:	0e 94 04 01 	call	0x208	; 0x208 <LCDByte>
    1a1e:	82 e0       	ldi	r24, 0x02	; 2
    1a20:	60 e0       	ldi	r22, 0x00	; 0
    1a22:	0e 94 04 01 	call	0x208	; 0x208 <LCDByte>
    1a26:	8c e0       	ldi	r24, 0x0C	; 12
    1a28:	60 e0       	ldi	r22, 0x00	; 0
    1a2a:	0e 94 04 01 	call	0x208	; 0x208 <LCDByte>
						
						bSelectionMenu=0;
    1a2e:	10 92 f7 02 	sts	0x02F7, r1
						bDateChanged=1;		// Appena rientro in idle stampo le quote
    1a32:	29 81       	ldd	r18, Y+1	; 0x01
    1a34:	20 93 bd 02 	sts	0x02BD, r18
						bTimeChanged=1;
    1a38:	20 93 ad 02 	sts	0x02AD, r18
						bTempChanged=1;
    1a3c:	20 93 be 02 	sts	0x02BE, r18
						bHumChanged=1;
    1a40:	20 93 bc 02 	sts	0x02BC, r18
						
						bBacklightActive=0;
    1a44:	10 92 92 02 	sts	0x0292, r1
						BACKLIGHT_OFF();
    1a48:	5e 98       	cbi	0x0b, 6	; 11
						START_BACKLIGHT();
    1a4a:	5e 9a       	sbi	0x0b, 6	; 11
    1a4c:	80 91 b1 00 	lds	r24, 0x00B1
    1a50:	87 60       	ori	r24, 0x07	; 7
    1a52:	80 93 b1 00 	sts	0x00B1, r24
    1a56:	81 c7       	rjmp	.+3842   	; 0x295a <main+0x13a0>
				}				
				break;
			
/*--------------------------------------------------------------__DATE__-------------------------------*/			
			case STATE_EDIT_DATE:
				switch( bBtn ){
    1a58:	80 91 18 03 	lds	r24, 0x0318
    1a5c:	84 30       	cpi	r24, 0x04	; 4
    1a5e:	09 f4       	brne	.+2      	; 0x1a62 <main+0x4a8>
    1a60:	3f c1       	rjmp	.+638    	; 0x1ce0 <main+0x726>
    1a62:	85 30       	cpi	r24, 0x05	; 5
    1a64:	30 f4       	brcc	.+12     	; 0x1a72 <main+0x4b8>
    1a66:	88 23       	and	r24, r24
    1a68:	59 f0       	breq	.+22     	; 0x1a80 <main+0x4c6>
    1a6a:	82 30       	cpi	r24, 0x02	; 2
    1a6c:	09 f0       	breq	.+2      	; 0x1a70 <main+0x4b6>
    1a6e:	04 cf       	rjmp	.-504    	; 0x1878 <main+0x2be>
    1a70:	85 c0       	rjmp	.+266    	; 0x1b7c <main+0x5c2>
    1a72:	86 30       	cpi	r24, 0x06	; 6
    1a74:	09 f4       	brne	.+2      	; 0x1a78 <main+0x4be>
    1a76:	e7 c1       	rjmp	.+974    	; 0x1e46 <main+0x88c>
    1a78:	87 30       	cpi	r24, 0x07	; 7
    1a7a:	09 f0       	breq	.+2      	; 0x1a7e <main+0x4c4>
    1a7c:	fd ce       	rjmp	.-518    	; 0x1878 <main+0x2be>
    1a7e:	bf c2       	rjmp	.+1406   	; 0x1ffe <main+0xa44>
					case NO_BTN:
						if( bPrintQuotes ){
    1a80:	80 91 cf 02 	lds	r24, 0x02CF
    1a84:	88 23       	and	r24, r24
    1a86:	09 f4       	brne	.+2      	; 0x1a8a <main+0x4d0>
    1a88:	f7 ce       	rjmp	.-530    	; 0x1878 <main+0x2be>
							bPrintQuotes=0;
    1a8a:	10 92 cf 02 	sts	0x02CF, r1
							LCDClear();
    1a8e:	81 e0       	ldi	r24, 0x01	; 1
    1a90:	60 e0       	ldi	r22, 0x00	; 0
    1a92:	0e 94 04 01 	call	0x208	; 0x208 <LCDByte>
							tTimeEditing = tTime;
    1a96:	ad ee       	ldi	r26, 0xED	; 237
    1a98:	b2 e0       	ldi	r27, 0x02	; 2
    1a9a:	e5 ec       	ldi	r30, 0xC5	; 197
    1a9c:	f2 e0       	ldi	r31, 0x02	; 2
    1a9e:	88 e0       	ldi	r24, 0x08	; 8
    1aa0:	01 90       	ld	r0, Z+
    1aa2:	0d 92       	st	X+, r0
    1aa4:	81 50       	subi	r24, 0x01	; 1
    1aa6:	e1 f7       	brne	.-8      	; 0x1aa0 <main+0x4e6>
							sprintf(str, "%02d/%02d/%02d", tTimeEditing.bDay, tTimeEditing.bMonth, tTimeEditing.bYear);
    1aa8:	20 91 f2 02 	lds	r18, 0x02F2
    1aac:	90 91 f3 02 	lds	r25, 0x02F3
    1ab0:	80 91 f4 02 	lds	r24, 0x02F4
    1ab4:	4d b7       	in	r20, 0x3d	; 61
    1ab6:	5e b7       	in	r21, 0x3e	; 62
    1ab8:	4a 50       	subi	r20, 0x0A	; 10
    1aba:	50 40       	sbci	r21, 0x00	; 0
    1abc:	0f b6       	in	r0, 0x3f	; 63
    1abe:	f8 94       	cli
    1ac0:	5e bf       	out	0x3e, r21	; 62
    1ac2:	0f be       	out	0x3f, r0	; 63
    1ac4:	4d bf       	out	0x3d, r20	; 61
    1ac6:	ed b7       	in	r30, 0x3d	; 61
    1ac8:	fe b7       	in	r31, 0x3e	; 62
    1aca:	31 96       	adiw	r30, 0x01	; 1
    1acc:	43 ee       	ldi	r20, 0xE3	; 227
    1ace:	51 e0       	ldi	r21, 0x01	; 1
    1ad0:	ad b7       	in	r26, 0x3d	; 61
    1ad2:	be b7       	in	r27, 0x3e	; 62
    1ad4:	12 96       	adiw	r26, 0x02	; 2
    1ad6:	5c 93       	st	X, r21
    1ad8:	4e 93       	st	-X, r20
    1ada:	11 97       	sbiw	r26, 0x01	; 1
    1adc:	f3 82       	std	Z+3, r15	; 0x03
    1ade:	e2 82       	std	Z+2, r14	; 0x02
    1ae0:	24 83       	std	Z+4, r18	; 0x04
    1ae2:	15 82       	std	Z+5, r1	; 0x05
    1ae4:	96 83       	std	Z+6, r25	; 0x06
    1ae6:	17 82       	std	Z+7, r1	; 0x07
    1ae8:	80 87       	std	Z+8, r24	; 0x08
    1aea:	11 86       	std	Z+9, r1	; 0x09
    1aec:	0e 94 03 1c 	call	0x3806	; 0x3806 <sprintf>
							LCDWriteStringXY(0,0, "Editing date:");
    1af0:	8d b7       	in	r24, 0x3d	; 61
    1af2:	9e b7       	in	r25, 0x3e	; 62
    1af4:	0a 96       	adiw	r24, 0x0a	; 10
    1af6:	0f b6       	in	r0, 0x3f	; 63
    1af8:	f8 94       	cli
    1afa:	9e bf       	out	0x3e, r25	; 62
    1afc:	0f be       	out	0x3f, r0	; 63
    1afe:	8d bf       	out	0x3d, r24	; 61
    1b00:	80 e0       	ldi	r24, 0x00	; 0
    1b02:	60 e0       	ldi	r22, 0x00	; 0
    1b04:	4e e8       	ldi	r20, 0x8E	; 142
    1b06:	51 e0       	ldi	r21, 0x01	; 1
    1b08:	0e 94 d8 01 	call	0x3b0	; 0x3b0 <LCDWriteStringXY>
							LCDWriteStringXY(3,1, str);
    1b0c:	83 e0       	ldi	r24, 0x03	; 3
    1b0e:	61 e0       	ldi	r22, 0x01	; 1
    1b10:	43 ee       	ldi	r20, 0xE3	; 227
    1b12:	51 e0       	ldi	r21, 0x01	; 1
    1b14:	0e 94 d8 01 	call	0x3b0	; 0x3b0 <LCDWriteStringXY>
							LCD_SET_UNDERLINE_CURSOR;
    1b18:	8e e0       	ldi	r24, 0x0E	; 14
    1b1a:	60 e0       	ldi	r22, 0x00	; 0
    1b1c:	0e 94 04 01 	call	0x208	; 0x208 <LCDByte>
							LCD_CURSOR_LEFT_N(7);
    1b20:	10 92 83 02 	sts	0x0283, r1
    1b24:	10 92 84 02 	sts	0x0284, r1
    1b28:	10 92 85 02 	sts	0x0285, r1
    1b2c:	10 92 86 02 	sts	0x0286, r1
    1b30:	17 c0       	rjmp	.+46     	; 0x1b60 <main+0x5a6>
    1b32:	80 e1       	ldi	r24, 0x10	; 16
    1b34:	60 e0       	ldi	r22, 0x00	; 0
    1b36:	0e 94 04 01 	call	0x208	; 0x208 <LCDByte>
    1b3a:	80 91 83 02 	lds	r24, 0x0283
    1b3e:	90 91 84 02 	lds	r25, 0x0284
    1b42:	a0 91 85 02 	lds	r26, 0x0285
    1b46:	b0 91 86 02 	lds	r27, 0x0286
    1b4a:	01 96       	adiw	r24, 0x01	; 1
    1b4c:	a1 1d       	adc	r26, r1
    1b4e:	b1 1d       	adc	r27, r1
    1b50:	80 93 83 02 	sts	0x0283, r24
    1b54:	90 93 84 02 	sts	0x0284, r25
    1b58:	a0 93 85 02 	sts	0x0285, r26
    1b5c:	b0 93 86 02 	sts	0x0286, r27
    1b60:	80 91 83 02 	lds	r24, 0x0283
    1b64:	90 91 84 02 	lds	r25, 0x0284
    1b68:	a0 91 85 02 	lds	r26, 0x0285
    1b6c:	b0 91 86 02 	lds	r27, 0x0286
    1b70:	87 30       	cpi	r24, 0x07	; 7
    1b72:	91 05       	cpc	r25, r1
    1b74:	a1 05       	cpc	r26, r1
    1b76:	b1 05       	cpc	r27, r1
    1b78:	e0 f2       	brcs	.-72     	; 0x1b32 <main+0x578>
    1b7a:	7e ce       	rjmp	.-772    	; 0x1878 <main+0x2be>
						}
						break;
						
					case BTN_A:
						switch( bSelection ){
    1b7c:	80 91 8f 02 	lds	r24, 0x028F
    1b80:	81 30       	cpi	r24, 0x01	; 1
    1b82:	49 f1       	breq	.+82     	; 0x1bd6 <main+0x61c>
    1b84:	81 30       	cpi	r24, 0x01	; 1
    1b86:	18 f0       	brcs	.+6      	; 0x1b8e <main+0x5d4>
    1b88:	82 30       	cpi	r24, 0x02	; 2
    1b8a:	e9 f5       	brne	.+122    	; 0x1c06 <main+0x64c>
    1b8c:	31 c0       	rjmp	.+98     	; 0x1bf0 <main+0x636>
							case 0:		// day
								if(++tTimeEditing.bDay > baDays[tTimeEditing.bMonth-1]) tTimeEditing.bDay=1;
    1b8e:	80 91 f2 02 	lds	r24, 0x02F2
    1b92:	8f 5f       	subi	r24, 0xFF	; 255
    1b94:	80 93 f2 02 	sts	0x02F2, r24
    1b98:	90 91 f2 02 	lds	r25, 0x02F2
    1b9c:	e0 91 f3 02 	lds	r30, 0x02F3
    1ba0:	f0 e0       	ldi	r31, 0x00	; 0
    1ba2:	ef 58       	subi	r30, 0x8F	; 143
    1ba4:	fd 4f       	sbci	r31, 0xFD	; 253
    1ba6:	80 81       	ld	r24, Z
    1ba8:	89 17       	cp	r24, r25
    1baa:	18 f4       	brcc	.+6      	; 0x1bb2 <main+0x5f8>
    1bac:	81 e0       	ldi	r24, 0x01	; 1
    1bae:	80 93 f2 02 	sts	0x02F2, r24
								if(tTimeEditing.bMonth == 2 && !isLeapYear(tTimeEditing.bYear) && tTimeEditing.bDay == 29) tTimeEditing.bDay=1;
    1bb2:	80 91 f3 02 	lds	r24, 0x02F3
    1bb6:	82 30       	cpi	r24, 0x02	; 2
    1bb8:	31 f5       	brne	.+76     	; 0x1c06 <main+0x64c>
    1bba:	80 91 f4 02 	lds	r24, 0x02F4
    1bbe:	0e 94 08 09 	call	0x1210	; 0x1210 <isLeapYear>
    1bc2:	00 97       	sbiw	r24, 0x00	; 0
    1bc4:	01 f5       	brne	.+64     	; 0x1c06 <main+0x64c>
    1bc6:	80 91 f2 02 	lds	r24, 0x02F2
    1bca:	8d 31       	cpi	r24, 0x1D	; 29
    1bcc:	e1 f4       	brne	.+56     	; 0x1c06 <main+0x64c>
    1bce:	81 e0       	ldi	r24, 0x01	; 1
    1bd0:	80 93 f2 02 	sts	0x02F2, r24
    1bd4:	18 c0       	rjmp	.+48     	; 0x1c06 <main+0x64c>
								break;
							case 1:		// month
								if(++tTimeEditing.bMonth > 12) tTimeEditing.bMonth=1;
    1bd6:	80 91 f3 02 	lds	r24, 0x02F3
    1bda:	8f 5f       	subi	r24, 0xFF	; 255
    1bdc:	80 93 f3 02 	sts	0x02F3, r24
    1be0:	80 91 f3 02 	lds	r24, 0x02F3
    1be4:	8d 30       	cpi	r24, 0x0D	; 13
    1be6:	48 f0       	brcs	.+18     	; 0x1bfa <main+0x640>
    1be8:	81 e0       	ldi	r24, 0x01	; 1
    1bea:	80 93 f3 02 	sts	0x02F3, r24
    1bee:	05 c0       	rjmp	.+10     	; 0x1bfa <main+0x640>
								checkDay(&tTimeEditing, baDays);
								break;
							case 2:		// year
								tTimeEditing.bYear++;
    1bf0:	80 91 f4 02 	lds	r24, 0x02F4
    1bf4:	8f 5f       	subi	r24, 0xFF	; 255
    1bf6:	80 93 f4 02 	sts	0x02F4, r24
								checkDay(&tTimeEditing, baDays);
    1bfa:	8d ee       	ldi	r24, 0xED	; 237
    1bfc:	92 e0       	ldi	r25, 0x02	; 2
    1bfe:	62 e7       	ldi	r22, 0x72	; 114
    1c00:	72 e0       	ldi	r23, 0x02	; 2
    1c02:	0e 94 95 0a 	call	0x152a	; 0x152a <checkDay>
								break;
							default: break;
						}
						sprintf(str, "%02d/%02d/%02d", tTimeEditing.bDay, tTimeEditing.bMonth, tTimeEditing.bYear);
    1c06:	20 91 f2 02 	lds	r18, 0x02F2
    1c0a:	90 91 f3 02 	lds	r25, 0x02F3
    1c0e:	80 91 f4 02 	lds	r24, 0x02F4
    1c12:	ad b7       	in	r26, 0x3d	; 61
    1c14:	be b7       	in	r27, 0x3e	; 62
    1c16:	1a 97       	sbiw	r26, 0x0a	; 10
    1c18:	0f b6       	in	r0, 0x3f	; 63
    1c1a:	f8 94       	cli
    1c1c:	be bf       	out	0x3e, r27	; 62
    1c1e:	0f be       	out	0x3f, r0	; 63
    1c20:	ad bf       	out	0x3d, r26	; 61
    1c22:	ed b7       	in	r30, 0x3d	; 61
    1c24:	fe b7       	in	r31, 0x3e	; 62
    1c26:	31 96       	adiw	r30, 0x01	; 1
    1c28:	43 ee       	ldi	r20, 0xE3	; 227
    1c2a:	51 e0       	ldi	r21, 0x01	; 1
    1c2c:	12 96       	adiw	r26, 0x02	; 2
    1c2e:	5c 93       	st	X, r21
    1c30:	4e 93       	st	-X, r20
    1c32:	11 97       	sbiw	r26, 0x01	; 1
    1c34:	f3 82       	std	Z+3, r15	; 0x03
    1c36:	e2 82       	std	Z+2, r14	; 0x02
    1c38:	24 83       	std	Z+4, r18	; 0x04
    1c3a:	15 82       	std	Z+5, r1	; 0x05
    1c3c:	96 83       	std	Z+6, r25	; 0x06
    1c3e:	17 82       	std	Z+7, r1	; 0x07
    1c40:	80 87       	std	Z+8, r24	; 0x08
    1c42:	11 86       	std	Z+9, r1	; 0x09
    1c44:	0e 94 03 1c 	call	0x3806	; 0x3806 <sprintf>
						LCDWriteStringXY(3,1,str);
    1c48:	8d b7       	in	r24, 0x3d	; 61
    1c4a:	9e b7       	in	r25, 0x3e	; 62
    1c4c:	0a 96       	adiw	r24, 0x0a	; 10
    1c4e:	0f b6       	in	r0, 0x3f	; 63
    1c50:	f8 94       	cli
    1c52:	9e bf       	out	0x3e, r25	; 62
    1c54:	0f be       	out	0x3f, r0	; 63
    1c56:	8d bf       	out	0x3d, r24	; 61
    1c58:	83 e0       	ldi	r24, 0x03	; 3
    1c5a:	61 e0       	ldi	r22, 0x01	; 1
    1c5c:	43 ee       	ldi	r20, 0xE3	; 227
    1c5e:	51 e0       	ldi	r21, 0x01	; 1
    1c60:	0e 94 d8 01 	call	0x3b0	; 0x3b0 <LCDWriteStringXY>
						LCD_CURSOR_LEFT_N(7-3*bSelection);
    1c64:	10 92 83 02 	sts	0x0283, r1
    1c68:	10 92 84 02 	sts	0x0284, r1
    1c6c:	10 92 85 02 	sts	0x0285, r1
    1c70:	10 92 86 02 	sts	0x0286, r1
    1c74:	17 c0       	rjmp	.+46     	; 0x1ca4 <main+0x6ea>
    1c76:	80 e1       	ldi	r24, 0x10	; 16
    1c78:	60 e0       	ldi	r22, 0x00	; 0
    1c7a:	0e 94 04 01 	call	0x208	; 0x208 <LCDByte>
    1c7e:	80 91 83 02 	lds	r24, 0x0283
    1c82:	90 91 84 02 	lds	r25, 0x0284
    1c86:	a0 91 85 02 	lds	r26, 0x0285
    1c8a:	b0 91 86 02 	lds	r27, 0x0286
    1c8e:	01 96       	adiw	r24, 0x01	; 1
    1c90:	a1 1d       	adc	r26, r1
    1c92:	b1 1d       	adc	r27, r1
    1c94:	80 93 83 02 	sts	0x0283, r24
    1c98:	90 93 84 02 	sts	0x0284, r25
    1c9c:	a0 93 85 02 	sts	0x0285, r26
    1ca0:	b0 93 86 02 	sts	0x0286, r27
    1ca4:	20 91 83 02 	lds	r18, 0x0283
    1ca8:	30 91 84 02 	lds	r19, 0x0284
    1cac:	40 91 85 02 	lds	r20, 0x0285
    1cb0:	50 91 86 02 	lds	r21, 0x0286
    1cb4:	60 91 8f 02 	lds	r22, 0x028F
    1cb8:	70 e0       	ldi	r23, 0x00	; 0
    1cba:	cb 01       	movw	r24, r22
    1cbc:	88 0f       	add	r24, r24
    1cbe:	99 1f       	adc	r25, r25
    1cc0:	86 0f       	add	r24, r22
    1cc2:	97 1f       	adc	r25, r23
    1cc4:	90 95       	com	r25
    1cc6:	81 95       	neg	r24
    1cc8:	9f 4f       	sbci	r25, 0xFF	; 255
    1cca:	07 96       	adiw	r24, 0x07	; 7
    1ccc:	aa 27       	eor	r26, r26
    1cce:	97 fd       	sbrc	r25, 7
    1cd0:	a0 95       	com	r26
    1cd2:	ba 2f       	mov	r27, r26
    1cd4:	28 17       	cp	r18, r24
    1cd6:	39 07       	cpc	r19, r25
    1cd8:	4a 07       	cpc	r20, r26
    1cda:	5b 07       	cpc	r21, r27
    1cdc:	60 f2       	brcs	.-104    	; 0x1c76 <main+0x6bc>
    1cde:	3d c6       	rjmp	.+3194   	; 0x295a <main+0x13a0>
						bBtn = NO_BTN;
						break;
						
					case BTN_B:
						switch( bSelection ){
    1ce0:	80 91 8f 02 	lds	r24, 0x028F
    1ce4:	81 30       	cpi	r24, 0x01	; 1
    1ce6:	21 f1       	breq	.+72     	; 0x1d30 <main+0x776>
    1ce8:	81 30       	cpi	r24, 0x01	; 1
    1cea:	18 f0       	brcs	.+6      	; 0x1cf2 <main+0x738>
    1cec:	82 30       	cpi	r24, 0x02	; 2
    1cee:	f1 f5       	brne	.+124    	; 0x1d6c <main+0x7b2>
    1cf0:	2c c0       	rjmp	.+88     	; 0x1d4a <main+0x790>
							case 0:		// day
								if(--tTimeEditing.bDay < 1){
    1cf2:	80 91 f2 02 	lds	r24, 0x02F2
    1cf6:	81 50       	subi	r24, 0x01	; 1
    1cf8:	80 93 f2 02 	sts	0x02F2, r24
    1cfc:	80 91 f2 02 	lds	r24, 0x02F2
    1d00:	88 23       	and	r24, r24
    1d02:	a1 f5       	brne	.+104    	; 0x1d6c <main+0x7b2>
									tTimeEditing.bDay=baDays[tTimeEditing.bMonth-1];
    1d04:	e0 91 f3 02 	lds	r30, 0x02F3
    1d08:	f0 e0       	ldi	r31, 0x00	; 0
    1d0a:	ef 58       	subi	r30, 0x8F	; 143
    1d0c:	fd 4f       	sbci	r31, 0xFD	; 253
    1d0e:	80 81       	ld	r24, Z
    1d10:	80 93 f2 02 	sts	0x02F2, r24
									if((tTimeEditing.bMonth==2) && (!isLeapYear(tTimeEditing.bYear))) tTimeEditing.bDay=28;
    1d14:	80 91 f3 02 	lds	r24, 0x02F3
    1d18:	82 30       	cpi	r24, 0x02	; 2
    1d1a:	41 f5       	brne	.+80     	; 0x1d6c <main+0x7b2>
    1d1c:	80 91 f4 02 	lds	r24, 0x02F4
    1d20:	0e 94 08 09 	call	0x1210	; 0x1210 <isLeapYear>
    1d24:	00 97       	sbiw	r24, 0x00	; 0
    1d26:	11 f5       	brne	.+68     	; 0x1d6c <main+0x7b2>
    1d28:	8c e1       	ldi	r24, 0x1C	; 28
    1d2a:	80 93 f2 02 	sts	0x02F2, r24
    1d2e:	1e c0       	rjmp	.+60     	; 0x1d6c <main+0x7b2>
								}								
								break;
							case 1:		// month
								if(--tTimeEditing.bMonth < 1) tTimeEditing.bMonth=12;
    1d30:	80 91 f3 02 	lds	r24, 0x02F3
    1d34:	81 50       	subi	r24, 0x01	; 1
    1d36:	80 93 f3 02 	sts	0x02F3, r24
    1d3a:	80 91 f3 02 	lds	r24, 0x02F3
    1d3e:	88 23       	and	r24, r24
    1d40:	79 f4       	brne	.+30     	; 0x1d60 <main+0x7a6>
    1d42:	8c e0       	ldi	r24, 0x0C	; 12
    1d44:	80 93 f3 02 	sts	0x02F3, r24
    1d48:	0b c0       	rjmp	.+22     	; 0x1d60 <main+0x7a6>
								checkDay(&tTimeEditing, baDays);
								break;
							case 2:		// year
								if(--tTimeEditing.bYear < 1) tTimeEditing.bYear=99;
    1d4a:	80 91 f4 02 	lds	r24, 0x02F4
    1d4e:	81 50       	subi	r24, 0x01	; 1
    1d50:	80 93 f4 02 	sts	0x02F4, r24
    1d54:	80 91 f4 02 	lds	r24, 0x02F4
    1d58:	88 23       	and	r24, r24
    1d5a:	11 f4       	brne	.+4      	; 0x1d60 <main+0x7a6>
    1d5c:	80 92 f4 02 	sts	0x02F4, r8
								checkDay(&tTimeEditing, baDays);
    1d60:	8d ee       	ldi	r24, 0xED	; 237
    1d62:	92 e0       	ldi	r25, 0x02	; 2
    1d64:	62 e7       	ldi	r22, 0x72	; 114
    1d66:	72 e0       	ldi	r23, 0x02	; 2
    1d68:	0e 94 95 0a 	call	0x152a	; 0x152a <checkDay>
								break;
							default: break;
						}
						sprintf(str, "%02d/%02d/%02d", tTimeEditing.bDay, tTimeEditing.bMonth, tTimeEditing.bYear);
    1d6c:	20 91 f2 02 	lds	r18, 0x02F2
    1d70:	90 91 f3 02 	lds	r25, 0x02F3
    1d74:	80 91 f4 02 	lds	r24, 0x02F4
    1d78:	ad b7       	in	r26, 0x3d	; 61
    1d7a:	be b7       	in	r27, 0x3e	; 62
    1d7c:	1a 97       	sbiw	r26, 0x0a	; 10
    1d7e:	0f b6       	in	r0, 0x3f	; 63
    1d80:	f8 94       	cli
    1d82:	be bf       	out	0x3e, r27	; 62
    1d84:	0f be       	out	0x3f, r0	; 63
    1d86:	ad bf       	out	0x3d, r26	; 61
    1d88:	ed b7       	in	r30, 0x3d	; 61
    1d8a:	fe b7       	in	r31, 0x3e	; 62
    1d8c:	31 96       	adiw	r30, 0x01	; 1
    1d8e:	43 ee       	ldi	r20, 0xE3	; 227
    1d90:	51 e0       	ldi	r21, 0x01	; 1
    1d92:	12 96       	adiw	r26, 0x02	; 2
    1d94:	5c 93       	st	X, r21
    1d96:	4e 93       	st	-X, r20
    1d98:	11 97       	sbiw	r26, 0x01	; 1
    1d9a:	f3 82       	std	Z+3, r15	; 0x03
    1d9c:	e2 82       	std	Z+2, r14	; 0x02
    1d9e:	24 83       	std	Z+4, r18	; 0x04
    1da0:	15 82       	std	Z+5, r1	; 0x05
    1da2:	96 83       	std	Z+6, r25	; 0x06
    1da4:	17 82       	std	Z+7, r1	; 0x07
    1da6:	80 87       	std	Z+8, r24	; 0x08
    1da8:	11 86       	std	Z+9, r1	; 0x09
    1daa:	0e 94 03 1c 	call	0x3806	; 0x3806 <sprintf>
						LCDWriteStringXY(3,1,str);
    1dae:	8d b7       	in	r24, 0x3d	; 61
    1db0:	9e b7       	in	r25, 0x3e	; 62
    1db2:	0a 96       	adiw	r24, 0x0a	; 10
    1db4:	0f b6       	in	r0, 0x3f	; 63
    1db6:	f8 94       	cli
    1db8:	9e bf       	out	0x3e, r25	; 62
    1dba:	0f be       	out	0x3f, r0	; 63
    1dbc:	8d bf       	out	0x3d, r24	; 61
    1dbe:	83 e0       	ldi	r24, 0x03	; 3
    1dc0:	61 e0       	ldi	r22, 0x01	; 1
    1dc2:	43 ee       	ldi	r20, 0xE3	; 227
    1dc4:	51 e0       	ldi	r21, 0x01	; 1
    1dc6:	0e 94 d8 01 	call	0x3b0	; 0x3b0 <LCDWriteStringXY>
						LCD_CURSOR_LEFT_N(7-3*bSelection);
    1dca:	10 92 83 02 	sts	0x0283, r1
    1dce:	10 92 84 02 	sts	0x0284, r1
    1dd2:	10 92 85 02 	sts	0x0285, r1
    1dd6:	10 92 86 02 	sts	0x0286, r1
    1dda:	17 c0       	rjmp	.+46     	; 0x1e0a <main+0x850>
    1ddc:	80 e1       	ldi	r24, 0x10	; 16
    1dde:	60 e0       	ldi	r22, 0x00	; 0
    1de0:	0e 94 04 01 	call	0x208	; 0x208 <LCDByte>
    1de4:	80 91 83 02 	lds	r24, 0x0283
    1de8:	90 91 84 02 	lds	r25, 0x0284
    1dec:	a0 91 85 02 	lds	r26, 0x0285
    1df0:	b0 91 86 02 	lds	r27, 0x0286
    1df4:	01 96       	adiw	r24, 0x01	; 1
    1df6:	a1 1d       	adc	r26, r1
    1df8:	b1 1d       	adc	r27, r1
    1dfa:	80 93 83 02 	sts	0x0283, r24
    1dfe:	90 93 84 02 	sts	0x0284, r25
    1e02:	a0 93 85 02 	sts	0x0285, r26
    1e06:	b0 93 86 02 	sts	0x0286, r27
    1e0a:	20 91 83 02 	lds	r18, 0x0283
    1e0e:	30 91 84 02 	lds	r19, 0x0284
    1e12:	40 91 85 02 	lds	r20, 0x0285
    1e16:	50 91 86 02 	lds	r21, 0x0286
    1e1a:	60 91 8f 02 	lds	r22, 0x028F
    1e1e:	70 e0       	ldi	r23, 0x00	; 0
    1e20:	cb 01       	movw	r24, r22
    1e22:	88 0f       	add	r24, r24
    1e24:	99 1f       	adc	r25, r25
    1e26:	86 0f       	add	r24, r22
    1e28:	97 1f       	adc	r25, r23
    1e2a:	90 95       	com	r25
    1e2c:	81 95       	neg	r24
    1e2e:	9f 4f       	sbci	r25, 0xFF	; 255
    1e30:	07 96       	adiw	r24, 0x07	; 7
    1e32:	aa 27       	eor	r26, r26
    1e34:	97 fd       	sbrc	r25, 7
    1e36:	a0 95       	com	r26
    1e38:	ba 2f       	mov	r27, r26
    1e3a:	28 17       	cp	r18, r24
    1e3c:	39 07       	cpc	r19, r25
    1e3e:	4a 07       	cpc	r20, r26
    1e40:	5b 07       	cpc	r21, r27
    1e42:	60 f2       	brcs	.-104    	; 0x1ddc <main+0x822>
    1e44:	8a c5       	rjmp	.+2836   	; 0x295a <main+0x13a0>
						bBtn = NO_BTN;
						break;
						
					case BTN_C:
						if( bSelection<2 ){
    1e46:	80 91 8f 02 	lds	r24, 0x028F
    1e4a:	82 30       	cpi	r24, 0x02	; 2
    1e4c:	98 f5       	brcc	.+102    	; 0x1eb4 <main+0x8fa>
							LCD_CURSOR_RIGHT_N(3);
    1e4e:	10 92 83 02 	sts	0x0283, r1
    1e52:	10 92 84 02 	sts	0x0284, r1
    1e56:	10 92 85 02 	sts	0x0285, r1
    1e5a:	10 92 86 02 	sts	0x0286, r1
    1e5e:	17 c0       	rjmp	.+46     	; 0x1e8e <main+0x8d4>
    1e60:	84 e1       	ldi	r24, 0x14	; 20
    1e62:	60 e0       	ldi	r22, 0x00	; 0
    1e64:	0e 94 04 01 	call	0x208	; 0x208 <LCDByte>
    1e68:	80 91 83 02 	lds	r24, 0x0283
    1e6c:	90 91 84 02 	lds	r25, 0x0284
    1e70:	a0 91 85 02 	lds	r26, 0x0285
    1e74:	b0 91 86 02 	lds	r27, 0x0286
    1e78:	01 96       	adiw	r24, 0x01	; 1
    1e7a:	a1 1d       	adc	r26, r1
    1e7c:	b1 1d       	adc	r27, r1
    1e7e:	80 93 83 02 	sts	0x0283, r24
    1e82:	90 93 84 02 	sts	0x0284, r25
    1e86:	a0 93 85 02 	sts	0x0285, r26
    1e8a:	b0 93 86 02 	sts	0x0286, r27
    1e8e:	80 91 83 02 	lds	r24, 0x0283
    1e92:	90 91 84 02 	lds	r25, 0x0284
    1e96:	a0 91 85 02 	lds	r26, 0x0285
    1e9a:	b0 91 86 02 	lds	r27, 0x0286
    1e9e:	83 30       	cpi	r24, 0x03	; 3
    1ea0:	91 05       	cpc	r25, r1
    1ea2:	a1 05       	cpc	r26, r1
    1ea4:	b1 05       	cpc	r27, r1
    1ea6:	e0 f2       	brcs	.-72     	; 0x1e60 <main+0x8a6>
							bSelection++;
    1ea8:	80 91 8f 02 	lds	r24, 0x028F
    1eac:	8f 5f       	subi	r24, 0xFF	; 255
    1eae:	80 93 8f 02 	sts	0x028F, r24
    1eb2:	2f c0       	rjmp	.+94     	; 0x1f12 <main+0x958>
						}else{
							bSelection=0;
    1eb4:	10 92 8f 02 	sts	0x028F, r1
							LCD_CURSOR_LEFT_N(6);
    1eb8:	10 92 83 02 	sts	0x0283, r1
    1ebc:	10 92 84 02 	sts	0x0284, r1
    1ec0:	10 92 85 02 	sts	0x0285, r1
    1ec4:	10 92 86 02 	sts	0x0286, r1
    1ec8:	17 c0       	rjmp	.+46     	; 0x1ef8 <main+0x93e>
    1eca:	80 e1       	ldi	r24, 0x10	; 16
    1ecc:	60 e0       	ldi	r22, 0x00	; 0
    1ece:	0e 94 04 01 	call	0x208	; 0x208 <LCDByte>
    1ed2:	80 91 83 02 	lds	r24, 0x0283
    1ed6:	90 91 84 02 	lds	r25, 0x0284
    1eda:	a0 91 85 02 	lds	r26, 0x0285
    1ede:	b0 91 86 02 	lds	r27, 0x0286
    1ee2:	01 96       	adiw	r24, 0x01	; 1
    1ee4:	a1 1d       	adc	r26, r1
    1ee6:	b1 1d       	adc	r27, r1
    1ee8:	80 93 83 02 	sts	0x0283, r24
    1eec:	90 93 84 02 	sts	0x0284, r25
    1ef0:	a0 93 85 02 	sts	0x0285, r26
    1ef4:	b0 93 86 02 	sts	0x0286, r27
    1ef8:	80 91 83 02 	lds	r24, 0x0283
    1efc:	90 91 84 02 	lds	r25, 0x0284
    1f00:	a0 91 85 02 	lds	r26, 0x0285
    1f04:	b0 91 86 02 	lds	r27, 0x0286
    1f08:	86 30       	cpi	r24, 0x06	; 6
    1f0a:	91 05       	cpc	r25, r1
    1f0c:	a1 05       	cpc	r26, r1
    1f0e:	b1 05       	cpc	r27, r1
    1f10:	e0 f2       	brcs	.-72     	; 0x1eca <main+0x910>
						}
						if(checkDay(&tTimeEditing, baDays)){
    1f12:	8d ee       	ldi	r24, 0xED	; 237
    1f14:	92 e0       	ldi	r25, 0x02	; 2
    1f16:	62 e7       	ldi	r22, 0x72	; 114
    1f18:	72 e0       	ldi	r23, 0x02	; 2
    1f1a:	0e 94 95 0a 	call	0x152a	; 0x152a <checkDay>
    1f1e:	00 97       	sbiw	r24, 0x00	; 0
    1f20:	09 f4       	brne	.+2      	; 0x1f24 <main+0x96a>
    1f22:	1b c5       	rjmp	.+2614   	; 0x295a <main+0x13a0>
							sprintf(str, "%02d/%02d/%02d", tTimeEditing.bDay, tTimeEditing.bMonth, tTimeEditing.bYear);
    1f24:	20 91 f2 02 	lds	r18, 0x02F2
    1f28:	90 91 f3 02 	lds	r25, 0x02F3
    1f2c:	80 91 f4 02 	lds	r24, 0x02F4
    1f30:	ad b7       	in	r26, 0x3d	; 61
    1f32:	be b7       	in	r27, 0x3e	; 62
    1f34:	1a 97       	sbiw	r26, 0x0a	; 10
    1f36:	0f b6       	in	r0, 0x3f	; 63
    1f38:	f8 94       	cli
    1f3a:	be bf       	out	0x3e, r27	; 62
    1f3c:	0f be       	out	0x3f, r0	; 63
    1f3e:	ad bf       	out	0x3d, r26	; 61
    1f40:	ed b7       	in	r30, 0x3d	; 61
    1f42:	fe b7       	in	r31, 0x3e	; 62
    1f44:	31 96       	adiw	r30, 0x01	; 1
    1f46:	43 ee       	ldi	r20, 0xE3	; 227
    1f48:	51 e0       	ldi	r21, 0x01	; 1
    1f4a:	12 96       	adiw	r26, 0x02	; 2
    1f4c:	5c 93       	st	X, r21
    1f4e:	4e 93       	st	-X, r20
    1f50:	11 97       	sbiw	r26, 0x01	; 1
    1f52:	f3 82       	std	Z+3, r15	; 0x03
    1f54:	e2 82       	std	Z+2, r14	; 0x02
    1f56:	24 83       	std	Z+4, r18	; 0x04
    1f58:	15 82       	std	Z+5, r1	; 0x05
    1f5a:	96 83       	std	Z+6, r25	; 0x06
    1f5c:	17 82       	std	Z+7, r1	; 0x07
    1f5e:	80 87       	std	Z+8, r24	; 0x08
    1f60:	11 86       	std	Z+9, r1	; 0x09
    1f62:	0e 94 03 1c 	call	0x3806	; 0x3806 <sprintf>
							LCDWriteStringXY(3,1,str);
    1f66:	8d b7       	in	r24, 0x3d	; 61
    1f68:	9e b7       	in	r25, 0x3e	; 62
    1f6a:	0a 96       	adiw	r24, 0x0a	; 10
    1f6c:	0f b6       	in	r0, 0x3f	; 63
    1f6e:	f8 94       	cli
    1f70:	9e bf       	out	0x3e, r25	; 62
    1f72:	0f be       	out	0x3f, r0	; 63
    1f74:	8d bf       	out	0x3d, r24	; 61
    1f76:	83 e0       	ldi	r24, 0x03	; 3
    1f78:	61 e0       	ldi	r22, 0x01	; 1
    1f7a:	43 ee       	ldi	r20, 0xE3	; 227
    1f7c:	51 e0       	ldi	r21, 0x01	; 1
    1f7e:	0e 94 d8 01 	call	0x3b0	; 0x3b0 <LCDWriteStringXY>
							LCD_CURSOR_LEFT_N(7-3*bSelection);
    1f82:	10 92 83 02 	sts	0x0283, r1
    1f86:	10 92 84 02 	sts	0x0284, r1
    1f8a:	10 92 85 02 	sts	0x0285, r1
    1f8e:	10 92 86 02 	sts	0x0286, r1
    1f92:	17 c0       	rjmp	.+46     	; 0x1fc2 <main+0xa08>
    1f94:	80 e1       	ldi	r24, 0x10	; 16
    1f96:	60 e0       	ldi	r22, 0x00	; 0
    1f98:	0e 94 04 01 	call	0x208	; 0x208 <LCDByte>
    1f9c:	80 91 83 02 	lds	r24, 0x0283
    1fa0:	90 91 84 02 	lds	r25, 0x0284
    1fa4:	a0 91 85 02 	lds	r26, 0x0285
    1fa8:	b0 91 86 02 	lds	r27, 0x0286
    1fac:	01 96       	adiw	r24, 0x01	; 1
    1fae:	a1 1d       	adc	r26, r1
    1fb0:	b1 1d       	adc	r27, r1
    1fb2:	80 93 83 02 	sts	0x0283, r24
    1fb6:	90 93 84 02 	sts	0x0284, r25
    1fba:	a0 93 85 02 	sts	0x0285, r26
    1fbe:	b0 93 86 02 	sts	0x0286, r27
    1fc2:	20 91 83 02 	lds	r18, 0x0283
    1fc6:	30 91 84 02 	lds	r19, 0x0284
    1fca:	40 91 85 02 	lds	r20, 0x0285
    1fce:	50 91 86 02 	lds	r21, 0x0286
    1fd2:	60 91 8f 02 	lds	r22, 0x028F
    1fd6:	70 e0       	ldi	r23, 0x00	; 0
    1fd8:	cb 01       	movw	r24, r22
    1fda:	88 0f       	add	r24, r24
    1fdc:	99 1f       	adc	r25, r25
    1fde:	86 0f       	add	r24, r22
    1fe0:	97 1f       	adc	r25, r23
    1fe2:	90 95       	com	r25
    1fe4:	81 95       	neg	r24
    1fe6:	9f 4f       	sbci	r25, 0xFF	; 255
    1fe8:	07 96       	adiw	r24, 0x07	; 7
    1fea:	aa 27       	eor	r26, r26
    1fec:	97 fd       	sbrc	r25, 7
    1fee:	a0 95       	com	r26
    1ff0:	ba 2f       	mov	r27, r26
    1ff2:	28 17       	cp	r18, r24
    1ff4:	39 07       	cpc	r19, r25
    1ff6:	4a 07       	cpc	r20, r26
    1ff8:	5b 07       	cpc	r21, r27
    1ffa:	60 f2       	brcs	.-104    	; 0x1f94 <main+0x9da>
    1ffc:	ae c4       	rjmp	.+2396   	; 0x295a <main+0x13a0>
						}
						bBtn = NO_BTN;
						break;
						
					case BTN_C_LONG:
						bState=STATE_EDIT_DATE_CONFIRM;
    1ffe:	83 e0       	ldi	r24, 0x03	; 3
    2000:	80 93 82 02 	sts	0x0282, r24
						bBtn=NO_BTN;
    2004:	10 92 18 03 	sts	0x0318, r1
						bPrintQuotes=1;
    2008:	81 e0       	ldi	r24, 0x01	; 1
    200a:	80 93 cf 02 	sts	0x02CF, r24
						break;
    200e:	34 cc       	rjmp	.-1944   	; 0x1878 <main+0x2be>
				vConfirmState();
				break;

/*--------------------------------------------------------------__TIME__-------------------------------*/
			case STATE_EDIT_TIME:
					switch( bBtn ){
    2010:	80 91 18 03 	lds	r24, 0x0318
    2014:	84 30       	cpi	r24, 0x04	; 4
    2016:	09 f4       	brne	.+2      	; 0x201a <main+0xa60>
    2018:	28 c1       	rjmp	.+592    	; 0x226a <main+0xcb0>
    201a:	85 30       	cpi	r24, 0x05	; 5
    201c:	30 f4       	brcc	.+12     	; 0x202a <main+0xa70>
    201e:	88 23       	and	r24, r24
    2020:	59 f0       	breq	.+22     	; 0x2038 <main+0xa7e>
    2022:	82 30       	cpi	r24, 0x02	; 2
    2024:	09 f0       	breq	.+2      	; 0x2028 <main+0xa6e>
    2026:	28 cc       	rjmp	.-1968   	; 0x1878 <main+0x2be>
    2028:	82 c0       	rjmp	.+260    	; 0x212e <main+0xb74>
    202a:	86 30       	cpi	r24, 0x06	; 6
    202c:	09 f4       	brne	.+2      	; 0x2030 <main+0xa76>
    202e:	b8 c1       	rjmp	.+880    	; 0x23a0 <main+0xde6>
    2030:	87 30       	cpi	r24, 0x07	; 7
    2032:	09 f0       	breq	.+2      	; 0x2036 <main+0xa7c>
    2034:	21 cc       	rjmp	.-1982   	; 0x1878 <main+0x2be>
    2036:	1b c2       	rjmp	.+1078   	; 0x246e <main+0xeb4>
						case NO_BTN:
							if( bPrintQuotes ){
    2038:	80 91 cf 02 	lds	r24, 0x02CF
    203c:	88 23       	and	r24, r24
    203e:	09 f4       	brne	.+2      	; 0x2042 <main+0xa88>
    2040:	1b cc       	rjmp	.-1994   	; 0x1878 <main+0x2be>
								bPrintQuotes=0;
    2042:	10 92 cf 02 	sts	0x02CF, r1
								LCDClear();
    2046:	81 e0       	ldi	r24, 0x01	; 1
    2048:	60 e0       	ldi	r22, 0x00	; 0
    204a:	0e 94 04 01 	call	0x208	; 0x208 <LCDByte>
								tTimeEditing = tTime;
    204e:	ad ee       	ldi	r26, 0xED	; 237
    2050:	b2 e0       	ldi	r27, 0x02	; 2
    2052:	e5 ec       	ldi	r30, 0xC5	; 197
    2054:	f2 e0       	ldi	r31, 0x02	; 2
    2056:	88 e0       	ldi	r24, 0x08	; 8
    2058:	01 90       	ld	r0, Z+
    205a:	0d 92       	st	X+, r0
    205c:	81 50       	subi	r24, 0x01	; 1
    205e:	e1 f7       	brne	.-8      	; 0x2058 <main+0xa9e>
								sprintf(str, "%02d:%02d:%02d", tTimeEditing.bHour, tTimeEditing.bMin, tTimeEditing.bSec);
    2060:	20 91 f1 02 	lds	r18, 0x02F1
    2064:	90 91 f0 02 	lds	r25, 0x02F0
    2068:	80 91 ef 02 	lds	r24, 0x02EF
    206c:	ad b7       	in	r26, 0x3d	; 61
    206e:	be b7       	in	r27, 0x3e	; 62
    2070:	1a 97       	sbiw	r26, 0x0a	; 10
    2072:	0f b6       	in	r0, 0x3f	; 63
    2074:	f8 94       	cli
    2076:	be bf       	out	0x3e, r27	; 62
    2078:	0f be       	out	0x3f, r0	; 63
    207a:	ad bf       	out	0x3d, r26	; 61
    207c:	ed b7       	in	r30, 0x3d	; 61
    207e:	fe b7       	in	r31, 0x3e	; 62
    2080:	31 96       	adiw	r30, 0x01	; 1
    2082:	43 ee       	ldi	r20, 0xE3	; 227
    2084:	51 e0       	ldi	r21, 0x01	; 1
    2086:	12 96       	adiw	r26, 0x02	; 2
    2088:	5c 93       	st	X, r21
    208a:	4e 93       	st	-X, r20
    208c:	11 97       	sbiw	r26, 0x01	; 1
    208e:	d3 82       	std	Z+3, r13	; 0x03
    2090:	c2 82       	std	Z+2, r12	; 0x02
    2092:	24 83       	std	Z+4, r18	; 0x04
    2094:	15 82       	std	Z+5, r1	; 0x05
    2096:	96 83       	std	Z+6, r25	; 0x06
    2098:	17 82       	std	Z+7, r1	; 0x07
    209a:	80 87       	std	Z+8, r24	; 0x08
    209c:	11 86       	std	Z+9, r1	; 0x09
    209e:	0e 94 03 1c 	call	0x3806	; 0x3806 <sprintf>
								LCDWriteStringXY(0,0, "Editing time:");
    20a2:	8d b7       	in	r24, 0x3d	; 61
    20a4:	9e b7       	in	r25, 0x3e	; 62
    20a6:	0a 96       	adiw	r24, 0x0a	; 10
    20a8:	0f b6       	in	r0, 0x3f	; 63
    20aa:	f8 94       	cli
    20ac:	9e bf       	out	0x3e, r25	; 62
    20ae:	0f be       	out	0x3f, r0	; 63
    20b0:	8d bf       	out	0x3d, r24	; 61
    20b2:	80 e0       	ldi	r24, 0x00	; 0
    20b4:	60 e0       	ldi	r22, 0x00	; 0
    20b6:	4b ea       	ldi	r20, 0xAB	; 171
    20b8:	51 e0       	ldi	r21, 0x01	; 1
    20ba:	0e 94 d8 01 	call	0x3b0	; 0x3b0 <LCDWriteStringXY>
								LCDWriteStringXY(3,1, str);
    20be:	83 e0       	ldi	r24, 0x03	; 3
    20c0:	61 e0       	ldi	r22, 0x01	; 1
    20c2:	43 ee       	ldi	r20, 0xE3	; 227
    20c4:	51 e0       	ldi	r21, 0x01	; 1
    20c6:	0e 94 d8 01 	call	0x3b0	; 0x3b0 <LCDWriteStringXY>
								LCD_SET_UNDERLINE_CURSOR;
    20ca:	8e e0       	ldi	r24, 0x0E	; 14
    20cc:	60 e0       	ldi	r22, 0x00	; 0
    20ce:	0e 94 04 01 	call	0x208	; 0x208 <LCDByte>
								LCD_CURSOR_LEFT_N(7);
    20d2:	10 92 83 02 	sts	0x0283, r1
    20d6:	10 92 84 02 	sts	0x0284, r1
    20da:	10 92 85 02 	sts	0x0285, r1
    20de:	10 92 86 02 	sts	0x0286, r1
    20e2:	17 c0       	rjmp	.+46     	; 0x2112 <main+0xb58>
    20e4:	80 e1       	ldi	r24, 0x10	; 16
    20e6:	60 e0       	ldi	r22, 0x00	; 0
    20e8:	0e 94 04 01 	call	0x208	; 0x208 <LCDByte>
    20ec:	80 91 83 02 	lds	r24, 0x0283
    20f0:	90 91 84 02 	lds	r25, 0x0284
    20f4:	a0 91 85 02 	lds	r26, 0x0285
    20f8:	b0 91 86 02 	lds	r27, 0x0286
    20fc:	01 96       	adiw	r24, 0x01	; 1
    20fe:	a1 1d       	adc	r26, r1
    2100:	b1 1d       	adc	r27, r1
    2102:	80 93 83 02 	sts	0x0283, r24
    2106:	90 93 84 02 	sts	0x0284, r25
    210a:	a0 93 85 02 	sts	0x0285, r26
    210e:	b0 93 86 02 	sts	0x0286, r27
    2112:	80 91 83 02 	lds	r24, 0x0283
    2116:	90 91 84 02 	lds	r25, 0x0284
    211a:	a0 91 85 02 	lds	r26, 0x0285
    211e:	b0 91 86 02 	lds	r27, 0x0286
    2122:	87 30       	cpi	r24, 0x07	; 7
    2124:	91 05       	cpc	r25, r1
    2126:	a1 05       	cpc	r26, r1
    2128:	b1 05       	cpc	r27, r1
    212a:	e0 f2       	brcs	.-72     	; 0x20e4 <main+0xb2a>
    212c:	a5 cb       	rjmp	.-2230   	; 0x1878 <main+0x2be>
							}
							break;
							
						case BTN_A:
							bBtn = NO_BTN;
    212e:	10 92 18 03 	sts	0x0318, r1
							switch ( bSelection ){
    2132:	80 91 8f 02 	lds	r24, 0x028F
    2136:	81 30       	cpi	r24, 0x01	; 1
    2138:	91 f0       	breq	.+36     	; 0x215e <main+0xba4>
    213a:	81 30       	cpi	r24, 0x01	; 1
    213c:	18 f0       	brcs	.+6      	; 0x2144 <main+0xb8a>
    213e:	82 30       	cpi	r24, 0x02	; 2
    2140:	39 f5       	brne	.+78     	; 0x2190 <main+0xbd6>
    2142:	1a c0       	rjmp	.+52     	; 0x2178 <main+0xbbe>
								case 0: // Hours
									tTimeEditing.bHour++;
    2144:	80 91 f1 02 	lds	r24, 0x02F1
    2148:	8f 5f       	subi	r24, 0xFF	; 255
    214a:	80 93 f1 02 	sts	0x02F1, r24
									tTimeEditing.bHour %= 24;
    214e:	80 91 f1 02 	lds	r24, 0x02F1
    2152:	62 2d       	mov	r22, r2
    2154:	0e 94 7f 1a 	call	0x34fe	; 0x34fe <__udivmodqi4>
    2158:	90 93 f1 02 	sts	0x02F1, r25
									break;
    215c:	19 c0       	rjmp	.+50     	; 0x2190 <main+0xbd6>
								case 1: // Minutes
									tTimeEditing.bMin++;
    215e:	80 91 f0 02 	lds	r24, 0x02F0
    2162:	8f 5f       	subi	r24, 0xFF	; 255
    2164:	80 93 f0 02 	sts	0x02F0, r24
									tTimeEditing.bMin %= 60;
    2168:	80 91 f0 02 	lds	r24, 0x02F0
    216c:	69 2d       	mov	r22, r9
    216e:	0e 94 7f 1a 	call	0x34fe	; 0x34fe <__udivmodqi4>
    2172:	90 93 f0 02 	sts	0x02F0, r25
									break;
    2176:	0c c0       	rjmp	.+24     	; 0x2190 <main+0xbd6>
								case 2: // Seconds
									tTimeEditing.bSec++;
    2178:	80 91 ef 02 	lds	r24, 0x02EF
    217c:	8f 5f       	subi	r24, 0xFF	; 255
    217e:	80 93 ef 02 	sts	0x02EF, r24
									tTimeEditing.bSec %= 60;
    2182:	80 91 ef 02 	lds	r24, 0x02EF
    2186:	69 2d       	mov	r22, r9
    2188:	0e 94 7f 1a 	call	0x34fe	; 0x34fe <__udivmodqi4>
    218c:	90 93 ef 02 	sts	0x02EF, r25
									break;
								default: break;
							}
							
							sprintf(str, "%02d:%02d:%02d", tTimeEditing.bHour, tTimeEditing.bMin, tTimeEditing.bSec);
    2190:	20 91 f1 02 	lds	r18, 0x02F1
    2194:	90 91 f0 02 	lds	r25, 0x02F0
    2198:	80 91 ef 02 	lds	r24, 0x02EF
    219c:	ad b7       	in	r26, 0x3d	; 61
    219e:	be b7       	in	r27, 0x3e	; 62
    21a0:	1a 97       	sbiw	r26, 0x0a	; 10
    21a2:	0f b6       	in	r0, 0x3f	; 63
    21a4:	f8 94       	cli
    21a6:	be bf       	out	0x3e, r27	; 62
    21a8:	0f be       	out	0x3f, r0	; 63
    21aa:	ad bf       	out	0x3d, r26	; 61
    21ac:	ed b7       	in	r30, 0x3d	; 61
    21ae:	fe b7       	in	r31, 0x3e	; 62
    21b0:	31 96       	adiw	r30, 0x01	; 1
    21b2:	43 ee       	ldi	r20, 0xE3	; 227
    21b4:	51 e0       	ldi	r21, 0x01	; 1
    21b6:	12 96       	adiw	r26, 0x02	; 2
    21b8:	5c 93       	st	X, r21
    21ba:	4e 93       	st	-X, r20
    21bc:	11 97       	sbiw	r26, 0x01	; 1
    21be:	d3 82       	std	Z+3, r13	; 0x03
    21c0:	c2 82       	std	Z+2, r12	; 0x02
    21c2:	24 83       	std	Z+4, r18	; 0x04
    21c4:	15 82       	std	Z+5, r1	; 0x05
    21c6:	96 83       	std	Z+6, r25	; 0x06
    21c8:	17 82       	std	Z+7, r1	; 0x07
    21ca:	80 87       	std	Z+8, r24	; 0x08
    21cc:	11 86       	std	Z+9, r1	; 0x09
    21ce:	0e 94 03 1c 	call	0x3806	; 0x3806 <sprintf>
							LCDWriteStringXY(3,1,str);
    21d2:	8d b7       	in	r24, 0x3d	; 61
    21d4:	9e b7       	in	r25, 0x3e	; 62
    21d6:	0a 96       	adiw	r24, 0x0a	; 10
    21d8:	0f b6       	in	r0, 0x3f	; 63
    21da:	f8 94       	cli
    21dc:	9e bf       	out	0x3e, r25	; 62
    21de:	0f be       	out	0x3f, r0	; 63
    21e0:	8d bf       	out	0x3d, r24	; 61
    21e2:	83 e0       	ldi	r24, 0x03	; 3
    21e4:	61 e0       	ldi	r22, 0x01	; 1
    21e6:	43 ee       	ldi	r20, 0xE3	; 227
    21e8:	51 e0       	ldi	r21, 0x01	; 1
    21ea:	0e 94 d8 01 	call	0x3b0	; 0x3b0 <LCDWriteStringXY>
							LCD_CURSOR_LEFT_N(7-3*bSelection);
    21ee:	10 92 83 02 	sts	0x0283, r1
    21f2:	10 92 84 02 	sts	0x0284, r1
    21f6:	10 92 85 02 	sts	0x0285, r1
    21fa:	10 92 86 02 	sts	0x0286, r1
    21fe:	17 c0       	rjmp	.+46     	; 0x222e <main+0xc74>
    2200:	80 e1       	ldi	r24, 0x10	; 16
    2202:	60 e0       	ldi	r22, 0x00	; 0
    2204:	0e 94 04 01 	call	0x208	; 0x208 <LCDByte>
    2208:	80 91 83 02 	lds	r24, 0x0283
    220c:	90 91 84 02 	lds	r25, 0x0284
    2210:	a0 91 85 02 	lds	r26, 0x0285
    2214:	b0 91 86 02 	lds	r27, 0x0286
    2218:	01 96       	adiw	r24, 0x01	; 1
    221a:	a1 1d       	adc	r26, r1
    221c:	b1 1d       	adc	r27, r1
    221e:	80 93 83 02 	sts	0x0283, r24
    2222:	90 93 84 02 	sts	0x0284, r25
    2226:	a0 93 85 02 	sts	0x0285, r26
    222a:	b0 93 86 02 	sts	0x0286, r27
    222e:	20 91 83 02 	lds	r18, 0x0283
    2232:	30 91 84 02 	lds	r19, 0x0284
    2236:	40 91 85 02 	lds	r20, 0x0285
    223a:	50 91 86 02 	lds	r21, 0x0286
    223e:	60 91 8f 02 	lds	r22, 0x028F
    2242:	70 e0       	ldi	r23, 0x00	; 0
    2244:	cb 01       	movw	r24, r22
    2246:	88 0f       	add	r24, r24
    2248:	99 1f       	adc	r25, r25
    224a:	86 0f       	add	r24, r22
    224c:	97 1f       	adc	r25, r23
    224e:	90 95       	com	r25
    2250:	81 95       	neg	r24
    2252:	9f 4f       	sbci	r25, 0xFF	; 255
    2254:	07 96       	adiw	r24, 0x07	; 7
    2256:	aa 27       	eor	r26, r26
    2258:	97 fd       	sbrc	r25, 7
    225a:	a0 95       	com	r26
    225c:	ba 2f       	mov	r27, r26
    225e:	28 17       	cp	r18, r24
    2260:	39 07       	cpc	r19, r25
    2262:	4a 07       	cpc	r20, r26
    2264:	5b 07       	cpc	r21, r27
    2266:	60 f2       	brcs	.-104    	; 0x2200 <main+0xc46>
    2268:	07 cb       	rjmp	.-2546   	; 0x1878 <main+0x2be>
							break;
							
						case BTN_B:
							bBtn = NO_BTN;
    226a:	10 92 18 03 	sts	0x0318, r1
							switch ( bSelection ){
    226e:	80 91 8f 02 	lds	r24, 0x028F
    2272:	81 30       	cpi	r24, 0x01	; 1
    2274:	89 f0       	breq	.+34     	; 0x2298 <main+0xcde>
    2276:	81 30       	cpi	r24, 0x01	; 1
    2278:	18 f0       	brcs	.+6      	; 0x2280 <main+0xcc6>
    227a:	82 30       	cpi	r24, 0x02	; 2
    227c:	21 f5       	brne	.+72     	; 0x22c6 <main+0xd0c>
    227e:	18 c0       	rjmp	.+48     	; 0x22b0 <main+0xcf6>
								case 0:
									if(--tTimeEditing.bHour>24) tTimeEditing.bHour=23; // Sarebbe "<0" ma queste variabili non vengono interpretate come con segno
    2280:	80 91 f1 02 	lds	r24, 0x02F1
    2284:	81 50       	subi	r24, 0x01	; 1
    2286:	80 93 f1 02 	sts	0x02F1, r24
    228a:	80 91 f1 02 	lds	r24, 0x02F1
    228e:	89 31       	cpi	r24, 0x19	; 25
    2290:	d0 f0       	brcs	.+52     	; 0x22c6 <main+0xd0c>
    2292:	50 92 f1 02 	sts	0x02F1, r5
    2296:	17 c0       	rjmp	.+46     	; 0x22c6 <main+0xd0c>
									break;
								case 1:
									if(--tTimeEditing.bMin>60) tTimeEditing.bMin=59;
    2298:	80 91 f0 02 	lds	r24, 0x02F0
    229c:	81 50       	subi	r24, 0x01	; 1
    229e:	80 93 f0 02 	sts	0x02F0, r24
    22a2:	80 91 f0 02 	lds	r24, 0x02F0
    22a6:	8d 33       	cpi	r24, 0x3D	; 61
    22a8:	70 f0       	brcs	.+28     	; 0x22c6 <main+0xd0c>
    22aa:	a0 92 f0 02 	sts	0x02F0, r10
    22ae:	0b c0       	rjmp	.+22     	; 0x22c6 <main+0xd0c>
									break;
								case 2:
									if(--tTimeEditing.bSec>60) tTimeEditing.bSec=59;
    22b0:	80 91 ef 02 	lds	r24, 0x02EF
    22b4:	81 50       	subi	r24, 0x01	; 1
    22b6:	80 93 ef 02 	sts	0x02EF, r24
    22ba:	80 91 ef 02 	lds	r24, 0x02EF
    22be:	8d 33       	cpi	r24, 0x3D	; 61
    22c0:	10 f0       	brcs	.+4      	; 0x22c6 <main+0xd0c>
    22c2:	a0 92 ef 02 	sts	0x02EF, r10
									break;
								default: break;
							}
							sprintf(str, "%02d:%02d:%02d", tTimeEditing.bHour, tTimeEditing.bMin, tTimeEditing.bSec);
    22c6:	20 91 f1 02 	lds	r18, 0x02F1
    22ca:	90 91 f0 02 	lds	r25, 0x02F0
    22ce:	80 91 ef 02 	lds	r24, 0x02EF
    22d2:	ad b7       	in	r26, 0x3d	; 61
    22d4:	be b7       	in	r27, 0x3e	; 62
    22d6:	1a 97       	sbiw	r26, 0x0a	; 10
    22d8:	0f b6       	in	r0, 0x3f	; 63
    22da:	f8 94       	cli
    22dc:	be bf       	out	0x3e, r27	; 62
    22de:	0f be       	out	0x3f, r0	; 63
    22e0:	ad bf       	out	0x3d, r26	; 61
    22e2:	ed b7       	in	r30, 0x3d	; 61
    22e4:	fe b7       	in	r31, 0x3e	; 62
    22e6:	31 96       	adiw	r30, 0x01	; 1
    22e8:	43 ee       	ldi	r20, 0xE3	; 227
    22ea:	51 e0       	ldi	r21, 0x01	; 1
    22ec:	12 96       	adiw	r26, 0x02	; 2
    22ee:	5c 93       	st	X, r21
    22f0:	4e 93       	st	-X, r20
    22f2:	11 97       	sbiw	r26, 0x01	; 1
    22f4:	d3 82       	std	Z+3, r13	; 0x03
    22f6:	c2 82       	std	Z+2, r12	; 0x02
    22f8:	24 83       	std	Z+4, r18	; 0x04
    22fa:	15 82       	std	Z+5, r1	; 0x05
    22fc:	96 83       	std	Z+6, r25	; 0x06
    22fe:	17 82       	std	Z+7, r1	; 0x07
    2300:	80 87       	std	Z+8, r24	; 0x08
    2302:	11 86       	std	Z+9, r1	; 0x09
    2304:	0e 94 03 1c 	call	0x3806	; 0x3806 <sprintf>
							LCDWriteStringXY(3,1,str);
    2308:	8d b7       	in	r24, 0x3d	; 61
    230a:	9e b7       	in	r25, 0x3e	; 62
    230c:	0a 96       	adiw	r24, 0x0a	; 10
    230e:	0f b6       	in	r0, 0x3f	; 63
    2310:	f8 94       	cli
    2312:	9e bf       	out	0x3e, r25	; 62
    2314:	0f be       	out	0x3f, r0	; 63
    2316:	8d bf       	out	0x3d, r24	; 61
    2318:	83 e0       	ldi	r24, 0x03	; 3
    231a:	61 e0       	ldi	r22, 0x01	; 1
    231c:	43 ee       	ldi	r20, 0xE3	; 227
    231e:	51 e0       	ldi	r21, 0x01	; 1
    2320:	0e 94 d8 01 	call	0x3b0	; 0x3b0 <LCDWriteStringXY>
							LCD_CURSOR_LEFT_N(7-3*bSelection);
    2324:	10 92 83 02 	sts	0x0283, r1
    2328:	10 92 84 02 	sts	0x0284, r1
    232c:	10 92 85 02 	sts	0x0285, r1
    2330:	10 92 86 02 	sts	0x0286, r1
    2334:	17 c0       	rjmp	.+46     	; 0x2364 <main+0xdaa>
    2336:	80 e1       	ldi	r24, 0x10	; 16
    2338:	60 e0       	ldi	r22, 0x00	; 0
    233a:	0e 94 04 01 	call	0x208	; 0x208 <LCDByte>
    233e:	80 91 83 02 	lds	r24, 0x0283
    2342:	90 91 84 02 	lds	r25, 0x0284
    2346:	a0 91 85 02 	lds	r26, 0x0285
    234a:	b0 91 86 02 	lds	r27, 0x0286
    234e:	01 96       	adiw	r24, 0x01	; 1
    2350:	a1 1d       	adc	r26, r1
    2352:	b1 1d       	adc	r27, r1
    2354:	80 93 83 02 	sts	0x0283, r24
    2358:	90 93 84 02 	sts	0x0284, r25
    235c:	a0 93 85 02 	sts	0x0285, r26
    2360:	b0 93 86 02 	sts	0x0286, r27
    2364:	20 91 83 02 	lds	r18, 0x0283
    2368:	30 91 84 02 	lds	r19, 0x0284
    236c:	40 91 85 02 	lds	r20, 0x0285
    2370:	50 91 86 02 	lds	r21, 0x0286
    2374:	60 91 8f 02 	lds	r22, 0x028F
    2378:	70 e0       	ldi	r23, 0x00	; 0
    237a:	cb 01       	movw	r24, r22
    237c:	88 0f       	add	r24, r24
    237e:	99 1f       	adc	r25, r25
    2380:	86 0f       	add	r24, r22
    2382:	97 1f       	adc	r25, r23
    2384:	90 95       	com	r25
    2386:	81 95       	neg	r24
    2388:	9f 4f       	sbci	r25, 0xFF	; 255
    238a:	07 96       	adiw	r24, 0x07	; 7
    238c:	aa 27       	eor	r26, r26
    238e:	97 fd       	sbrc	r25, 7
    2390:	a0 95       	com	r26
    2392:	ba 2f       	mov	r27, r26
    2394:	28 17       	cp	r18, r24
    2396:	39 07       	cpc	r19, r25
    2398:	4a 07       	cpc	r20, r26
    239a:	5b 07       	cpc	r21, r27
    239c:	60 f2       	brcs	.-104    	; 0x2336 <main+0xd7c>
    239e:	6c ca       	rjmp	.-2856   	; 0x1878 <main+0x2be>
							break;
							
						case BTN_C:
							if( bSelection<2 ){
    23a0:	80 91 8f 02 	lds	r24, 0x028F
    23a4:	82 30       	cpi	r24, 0x02	; 2
    23a6:	98 f5       	brcc	.+102    	; 0x240e <main+0xe54>
								LCD_CURSOR_RIGHT_N(3);
    23a8:	10 92 83 02 	sts	0x0283, r1
    23ac:	10 92 84 02 	sts	0x0284, r1
    23b0:	10 92 85 02 	sts	0x0285, r1
    23b4:	10 92 86 02 	sts	0x0286, r1
    23b8:	17 c0       	rjmp	.+46     	; 0x23e8 <main+0xe2e>
    23ba:	84 e1       	ldi	r24, 0x14	; 20
    23bc:	60 e0       	ldi	r22, 0x00	; 0
    23be:	0e 94 04 01 	call	0x208	; 0x208 <LCDByte>
    23c2:	80 91 83 02 	lds	r24, 0x0283
    23c6:	90 91 84 02 	lds	r25, 0x0284
    23ca:	a0 91 85 02 	lds	r26, 0x0285
    23ce:	b0 91 86 02 	lds	r27, 0x0286
    23d2:	01 96       	adiw	r24, 0x01	; 1
    23d4:	a1 1d       	adc	r26, r1
    23d6:	b1 1d       	adc	r27, r1
    23d8:	80 93 83 02 	sts	0x0283, r24
    23dc:	90 93 84 02 	sts	0x0284, r25
    23e0:	a0 93 85 02 	sts	0x0285, r26
    23e4:	b0 93 86 02 	sts	0x0286, r27
    23e8:	80 91 83 02 	lds	r24, 0x0283
    23ec:	90 91 84 02 	lds	r25, 0x0284
    23f0:	a0 91 85 02 	lds	r26, 0x0285
    23f4:	b0 91 86 02 	lds	r27, 0x0286
    23f8:	83 30       	cpi	r24, 0x03	; 3
    23fa:	91 05       	cpc	r25, r1
    23fc:	a1 05       	cpc	r26, r1
    23fe:	b1 05       	cpc	r27, r1
    2400:	e0 f2       	brcs	.-72     	; 0x23ba <main+0xe00>
								bSelection++;
    2402:	80 91 8f 02 	lds	r24, 0x028F
    2406:	8f 5f       	subi	r24, 0xFF	; 255
    2408:	80 93 8f 02 	sts	0x028F, r24
    240c:	a6 c2       	rjmp	.+1356   	; 0x295a <main+0x13a0>
							}else{
								bSelection=0;
    240e:	10 92 8f 02 	sts	0x028F, r1
								LCD_CURSOR_LEFT_N(6);
    2412:	10 92 83 02 	sts	0x0283, r1
    2416:	10 92 84 02 	sts	0x0284, r1
    241a:	10 92 85 02 	sts	0x0285, r1
    241e:	10 92 86 02 	sts	0x0286, r1
    2422:	17 c0       	rjmp	.+46     	; 0x2452 <main+0xe98>
    2424:	80 e1       	ldi	r24, 0x10	; 16
    2426:	60 e0       	ldi	r22, 0x00	; 0
    2428:	0e 94 04 01 	call	0x208	; 0x208 <LCDByte>
    242c:	80 91 83 02 	lds	r24, 0x0283
    2430:	90 91 84 02 	lds	r25, 0x0284
    2434:	a0 91 85 02 	lds	r26, 0x0285
    2438:	b0 91 86 02 	lds	r27, 0x0286
    243c:	01 96       	adiw	r24, 0x01	; 1
    243e:	a1 1d       	adc	r26, r1
    2440:	b1 1d       	adc	r27, r1
    2442:	80 93 83 02 	sts	0x0283, r24
    2446:	90 93 84 02 	sts	0x0284, r25
    244a:	a0 93 85 02 	sts	0x0285, r26
    244e:	b0 93 86 02 	sts	0x0286, r27
    2452:	80 91 83 02 	lds	r24, 0x0283
    2456:	90 91 84 02 	lds	r25, 0x0284
    245a:	a0 91 85 02 	lds	r26, 0x0285
    245e:	b0 91 86 02 	lds	r27, 0x0286
    2462:	86 30       	cpi	r24, 0x06	; 6
    2464:	91 05       	cpc	r25, r1
    2466:	a1 05       	cpc	r26, r1
    2468:	b1 05       	cpc	r27, r1
    246a:	e0 f2       	brcs	.-72     	; 0x2424 <main+0xe6a>
    246c:	76 c2       	rjmp	.+1260   	; 0x295a <main+0x13a0>
							}
							bBtn = NO_BTN;
							break;
							
						case BTN_C_LONG:
							bState=STATE_EDIT_TIME_CONFIRM;
    246e:	40 92 82 02 	sts	0x0282, r4
    2472:	c8 cd       	rjmp	.-1136   	; 0x2004 <main+0xa4a>
				break;
				
/*-------------------------------------------------------------------__HUMIDITY_ON__---------------------------*/
			case STATE_EDIT_HUM_ON_TH:
				
				switch( bBtn ){
    2474:	80 91 18 03 	lds	r24, 0x0318
    2478:	82 30       	cpi	r24, 0x02	; 2
    247a:	09 f4       	brne	.+2      	; 0x247e <main+0xec4>
    247c:	7a c0       	rjmp	.+244    	; 0x2572 <main+0xfb8>
    247e:	83 30       	cpi	r24, 0x03	; 3
    2480:	18 f4       	brcc	.+6      	; 0x2488 <main+0xece>
    2482:	88 23       	and	r24, r24
    2484:	41 f0       	breq	.+16     	; 0x2496 <main+0xedc>
    2486:	f8 c9       	rjmp	.-3088   	; 0x1878 <main+0x2be>
    2488:	84 30       	cpi	r24, 0x04	; 4
    248a:	09 f4       	brne	.+2      	; 0x248e <main+0xed4>
    248c:	cd c0       	rjmp	.+410    	; 0x2628 <main+0x106e>
    248e:	87 30       	cpi	r24, 0x07	; 7
    2490:	09 f0       	breq	.+2      	; 0x2494 <main+0xeda>
    2492:	f2 c9       	rjmp	.-3100   	; 0x1878 <main+0x2be>
    2494:	24 c1       	rjmp	.+584    	; 0x26de <main+0x1124>
					case NO_BTN:
						if( bPrintQuotes ){
    2496:	80 91 cf 02 	lds	r24, 0x02CF
    249a:	88 23       	and	r24, r24
    249c:	09 f4       	brne	.+2      	; 0x24a0 <main+0xee6>
    249e:	ec c9       	rjmp	.-3112   	; 0x1878 <main+0x2be>
							bPrintQuotes=0;
    24a0:	10 92 cf 02 	sts	0x02CF, r1
							LCDClear();
    24a4:	81 e0       	ldi	r24, 0x01	; 1
    24a6:	60 e0       	ldi	r22, 0x00	; 0
    24a8:	0e 94 04 01 	call	0x208	; 0x208 <LCDByte>
							bHumOnThresholdEditing = bHumOnThreshold;
    24ac:	80 91 ec 02 	lds	r24, 0x02EC
    24b0:	80 93 09 03 	sts	0x0309, r24
							sprintf(str, "RH= %02d", bHumOnThresholdEditing);
    24b4:	00 d0       	rcall	.+0      	; 0x24b6 <main+0xefc>
    24b6:	00 d0       	rcall	.+0      	; 0x24b8 <main+0xefe>
    24b8:	00 d0       	rcall	.+0      	; 0x24ba <main+0xf00>
    24ba:	ed b7       	in	r30, 0x3d	; 61
    24bc:	fe b7       	in	r31, 0x3e	; 62
    24be:	31 96       	adiw	r30, 0x01	; 1
    24c0:	23 ee       	ldi	r18, 0xE3	; 227
    24c2:	31 e0       	ldi	r19, 0x01	; 1
    24c4:	ad b7       	in	r26, 0x3d	; 61
    24c6:	be b7       	in	r27, 0x3e	; 62
    24c8:	12 96       	adiw	r26, 0x02	; 2
    24ca:	3c 93       	st	X, r19
    24cc:	2e 93       	st	-X, r18
    24ce:	11 97       	sbiw	r26, 0x01	; 1
    24d0:	73 82       	std	Z+3, r7	; 0x03
    24d2:	62 82       	std	Z+2, r6	; 0x02
    24d4:	84 83       	std	Z+4, r24	; 0x04
    24d6:	15 82       	std	Z+5, r1	; 0x05
    24d8:	0e 94 03 1c 	call	0x3806	; 0x3806 <sprintf>
							LCDWriteStringXY(0,0, "Edit Hum-On TH:");
    24dc:	4d b7       	in	r20, 0x3d	; 61
    24de:	5e b7       	in	r21, 0x3e	; 62
    24e0:	4a 5f       	subi	r20, 0xFA	; 250
    24e2:	5f 4f       	sbci	r21, 0xFF	; 255
    24e4:	0f b6       	in	r0, 0x3f	; 63
    24e6:	f8 94       	cli
    24e8:	5e bf       	out	0x3e, r21	; 62
    24ea:	0f be       	out	0x3f, r0	; 63
    24ec:	4d bf       	out	0x3d, r20	; 61
    24ee:	80 e0       	ldi	r24, 0x00	; 0
    24f0:	60 e0       	ldi	r22, 0x00	; 0
    24f2:	42 ec       	ldi	r20, 0xC2	; 194
    24f4:	51 e0       	ldi	r21, 0x01	; 1
    24f6:	0e 94 d8 01 	call	0x3b0	; 0x3b0 <LCDWriteStringXY>
							LCDWriteStringXY(6,1, str);
    24fa:	86 e0       	ldi	r24, 0x06	; 6
    24fc:	61 e0       	ldi	r22, 0x01	; 1
    24fe:	43 ee       	ldi	r20, 0xE3	; 227
    2500:	51 e0       	ldi	r21, 0x01	; 1
    2502:	0e 94 d8 01 	call	0x3b0	; 0x3b0 <LCDWriteStringXY>
							LCDWriteString("%");
    2506:	8e e3       	ldi	r24, 0x3E	; 62
    2508:	91 e0       	ldi	r25, 0x01	; 1
    250a:	0e 94 68 01 	call	0x2d0	; 0x2d0 <LCDWriteString>
							LCD_SET_UNDERLINE_CURSOR;
    250e:	8e e0       	ldi	r24, 0x0E	; 14
    2510:	60 e0       	ldi	r22, 0x00	; 0
    2512:	0e 94 04 01 	call	0x208	; 0x208 <LCDByte>
							LCD_CURSOR_LEFT_N(2);
    2516:	10 92 83 02 	sts	0x0283, r1
    251a:	10 92 84 02 	sts	0x0284, r1
    251e:	10 92 85 02 	sts	0x0285, r1
    2522:	10 92 86 02 	sts	0x0286, r1
    2526:	17 c0       	rjmp	.+46     	; 0x2556 <main+0xf9c>
    2528:	80 e1       	ldi	r24, 0x10	; 16
    252a:	60 e0       	ldi	r22, 0x00	; 0
    252c:	0e 94 04 01 	call	0x208	; 0x208 <LCDByte>
    2530:	80 91 83 02 	lds	r24, 0x0283
    2534:	90 91 84 02 	lds	r25, 0x0284
    2538:	a0 91 85 02 	lds	r26, 0x0285
    253c:	b0 91 86 02 	lds	r27, 0x0286
    2540:	01 96       	adiw	r24, 0x01	; 1
    2542:	a1 1d       	adc	r26, r1
    2544:	b1 1d       	adc	r27, r1
    2546:	80 93 83 02 	sts	0x0283, r24
    254a:	90 93 84 02 	sts	0x0284, r25
    254e:	a0 93 85 02 	sts	0x0285, r26
    2552:	b0 93 86 02 	sts	0x0286, r27
    2556:	80 91 83 02 	lds	r24, 0x0283
    255a:	90 91 84 02 	lds	r25, 0x0284
    255e:	a0 91 85 02 	lds	r26, 0x0285
    2562:	b0 91 86 02 	lds	r27, 0x0286
    2566:	82 30       	cpi	r24, 0x02	; 2
    2568:	91 05       	cpc	r25, r1
    256a:	a1 05       	cpc	r26, r1
    256c:	b1 05       	cpc	r27, r1
    256e:	e0 f2       	brcs	.-72     	; 0x2528 <main+0xf6e>
    2570:	83 c9       	rjmp	.-3322   	; 0x1878 <main+0x2be>
						}
						break;
						
					case BTN_A:
						if( ++bHumOnThresholdEditing > 99 ) bHumOnThresholdEditing = 0;
    2572:	80 91 09 03 	lds	r24, 0x0309
    2576:	8f 5f       	subi	r24, 0xFF	; 255
    2578:	80 93 09 03 	sts	0x0309, r24
    257c:	84 36       	cpi	r24, 0x64	; 100
    257e:	10 f0       	brcs	.+4      	; 0x2584 <main+0xfca>
    2580:	10 92 09 03 	sts	0x0309, r1
						sprintf(str, "%02d", bHumOnThresholdEditing);
    2584:	00 d0       	rcall	.+0      	; 0x2586 <main+0xfcc>
    2586:	00 d0       	rcall	.+0      	; 0x2588 <main+0xfce>
    2588:	00 d0       	rcall	.+0      	; 0x258a <main+0xfd0>
    258a:	ed b7       	in	r30, 0x3d	; 61
    258c:	fe b7       	in	r31, 0x3e	; 62
    258e:	31 96       	adiw	r30, 0x01	; 1
    2590:	23 ee       	ldi	r18, 0xE3	; 227
    2592:	31 e0       	ldi	r19, 0x01	; 1
    2594:	ad b7       	in	r26, 0x3d	; 61
    2596:	be b7       	in	r27, 0x3e	; 62
    2598:	12 96       	adiw	r26, 0x02	; 2
    259a:	3c 93       	st	X, r19
    259c:	2e 93       	st	-X, r18
    259e:	11 97       	sbiw	r26, 0x01	; 1
    25a0:	13 83       	std	Z+3, r17	; 0x03
    25a2:	02 83       	std	Z+2, r16	; 0x02
    25a4:	80 91 09 03 	lds	r24, 0x0309
    25a8:	84 83       	std	Z+4, r24	; 0x04
    25aa:	15 82       	std	Z+5, r1	; 0x05
    25ac:	0e 94 03 1c 	call	0x3806	; 0x3806 <sprintf>
						LCDWriteStringXY(10,1, str);
    25b0:	4d b7       	in	r20, 0x3d	; 61
    25b2:	5e b7       	in	r21, 0x3e	; 62
    25b4:	4a 5f       	subi	r20, 0xFA	; 250
    25b6:	5f 4f       	sbci	r21, 0xFF	; 255
    25b8:	0f b6       	in	r0, 0x3f	; 63
    25ba:	f8 94       	cli
    25bc:	5e bf       	out	0x3e, r21	; 62
    25be:	0f be       	out	0x3f, r0	; 63
    25c0:	4d bf       	out	0x3d, r20	; 61
    25c2:	8a e0       	ldi	r24, 0x0A	; 10
    25c4:	61 e0       	ldi	r22, 0x01	; 1
    25c6:	43 ee       	ldi	r20, 0xE3	; 227
    25c8:	51 e0       	ldi	r21, 0x01	; 1
    25ca:	0e 94 d8 01 	call	0x3b0	; 0x3b0 <LCDWriteStringXY>
						LCD_CURSOR_LEFT_N(1);
    25ce:	10 92 83 02 	sts	0x0283, r1
    25d2:	10 92 84 02 	sts	0x0284, r1
    25d6:	10 92 85 02 	sts	0x0285, r1
    25da:	10 92 86 02 	sts	0x0286, r1
    25de:	17 c0       	rjmp	.+46     	; 0x260e <main+0x1054>
    25e0:	80 e1       	ldi	r24, 0x10	; 16
    25e2:	60 e0       	ldi	r22, 0x00	; 0
    25e4:	0e 94 04 01 	call	0x208	; 0x208 <LCDByte>
    25e8:	80 91 83 02 	lds	r24, 0x0283
    25ec:	90 91 84 02 	lds	r25, 0x0284
    25f0:	a0 91 85 02 	lds	r26, 0x0285
    25f4:	b0 91 86 02 	lds	r27, 0x0286
    25f8:	01 96       	adiw	r24, 0x01	; 1
    25fa:	a1 1d       	adc	r26, r1
    25fc:	b1 1d       	adc	r27, r1
    25fe:	80 93 83 02 	sts	0x0283, r24
    2602:	90 93 84 02 	sts	0x0284, r25
    2606:	a0 93 85 02 	sts	0x0285, r26
    260a:	b0 93 86 02 	sts	0x0286, r27
    260e:	80 91 83 02 	lds	r24, 0x0283
    2612:	90 91 84 02 	lds	r25, 0x0284
    2616:	a0 91 85 02 	lds	r26, 0x0285
    261a:	b0 91 86 02 	lds	r27, 0x0286
    261e:	00 97       	sbiw	r24, 0x00	; 0
    2620:	a1 05       	cpc	r26, r1
    2622:	b1 05       	cpc	r27, r1
    2624:	e9 f2       	breq	.-70     	; 0x25e0 <main+0x1026>
    2626:	99 c1       	rjmp	.+818    	; 0x295a <main+0x13a0>
						bBtn=0;
						break;
						
					case BTN_B:
						if( --bHumOnThresholdEditing > 100 ) bHumOnThresholdEditing=99;
    2628:	80 91 09 03 	lds	r24, 0x0309
    262c:	81 50       	subi	r24, 0x01	; 1
    262e:	80 93 09 03 	sts	0x0309, r24
    2632:	85 36       	cpi	r24, 0x65	; 101
    2634:	10 f0       	brcs	.+4      	; 0x263a <main+0x1080>
    2636:	80 92 09 03 	sts	0x0309, r8
						sprintf(str, "%02d", bHumOnThresholdEditing);
    263a:	00 d0       	rcall	.+0      	; 0x263c <main+0x1082>
    263c:	00 d0       	rcall	.+0      	; 0x263e <main+0x1084>
    263e:	00 d0       	rcall	.+0      	; 0x2640 <main+0x1086>
    2640:	ed b7       	in	r30, 0x3d	; 61
    2642:	fe b7       	in	r31, 0x3e	; 62
    2644:	31 96       	adiw	r30, 0x01	; 1
    2646:	23 ee       	ldi	r18, 0xE3	; 227
    2648:	31 e0       	ldi	r19, 0x01	; 1
    264a:	ad b7       	in	r26, 0x3d	; 61
    264c:	be b7       	in	r27, 0x3e	; 62
    264e:	12 96       	adiw	r26, 0x02	; 2
    2650:	3c 93       	st	X, r19
    2652:	2e 93       	st	-X, r18
    2654:	11 97       	sbiw	r26, 0x01	; 1
    2656:	13 83       	std	Z+3, r17	; 0x03
    2658:	02 83       	std	Z+2, r16	; 0x02
    265a:	80 91 09 03 	lds	r24, 0x0309
    265e:	84 83       	std	Z+4, r24	; 0x04
    2660:	15 82       	std	Z+5, r1	; 0x05
    2662:	0e 94 03 1c 	call	0x3806	; 0x3806 <sprintf>
						LCDWriteStringXY(10,1, str);
    2666:	4d b7       	in	r20, 0x3d	; 61
    2668:	5e b7       	in	r21, 0x3e	; 62
    266a:	4a 5f       	subi	r20, 0xFA	; 250
    266c:	5f 4f       	sbci	r21, 0xFF	; 255
    266e:	0f b6       	in	r0, 0x3f	; 63
    2670:	f8 94       	cli
    2672:	5e bf       	out	0x3e, r21	; 62
    2674:	0f be       	out	0x3f, r0	; 63
    2676:	4d bf       	out	0x3d, r20	; 61
    2678:	8a e0       	ldi	r24, 0x0A	; 10
    267a:	61 e0       	ldi	r22, 0x01	; 1
    267c:	43 ee       	ldi	r20, 0xE3	; 227
    267e:	51 e0       	ldi	r21, 0x01	; 1
    2680:	0e 94 d8 01 	call	0x3b0	; 0x3b0 <LCDWriteStringXY>
						LCD_CURSOR_LEFT_N(1);
    2684:	10 92 83 02 	sts	0x0283, r1
    2688:	10 92 84 02 	sts	0x0284, r1
    268c:	10 92 85 02 	sts	0x0285, r1
    2690:	10 92 86 02 	sts	0x0286, r1
    2694:	17 c0       	rjmp	.+46     	; 0x26c4 <main+0x110a>
    2696:	80 e1       	ldi	r24, 0x10	; 16
    2698:	60 e0       	ldi	r22, 0x00	; 0
    269a:	0e 94 04 01 	call	0x208	; 0x208 <LCDByte>
    269e:	80 91 83 02 	lds	r24, 0x0283
    26a2:	90 91 84 02 	lds	r25, 0x0284
    26a6:	a0 91 85 02 	lds	r26, 0x0285
    26aa:	b0 91 86 02 	lds	r27, 0x0286
    26ae:	01 96       	adiw	r24, 0x01	; 1
    26b0:	a1 1d       	adc	r26, r1
    26b2:	b1 1d       	adc	r27, r1
    26b4:	80 93 83 02 	sts	0x0283, r24
    26b8:	90 93 84 02 	sts	0x0284, r25
    26bc:	a0 93 85 02 	sts	0x0285, r26
    26c0:	b0 93 86 02 	sts	0x0286, r27
    26c4:	80 91 83 02 	lds	r24, 0x0283
    26c8:	90 91 84 02 	lds	r25, 0x0284
    26cc:	a0 91 85 02 	lds	r26, 0x0285
    26d0:	b0 91 86 02 	lds	r27, 0x0286
    26d4:	00 97       	sbiw	r24, 0x00	; 0
    26d6:	a1 05       	cpc	r26, r1
    26d8:	b1 05       	cpc	r27, r1
    26da:	e9 f2       	breq	.-70     	; 0x2696 <main+0x10dc>
    26dc:	3e c1       	rjmp	.+636    	; 0x295a <main+0x13a0>
						bBtn=0;
						break;
						
					case BTN_C_LONG:
						bState = STATE_EDIT_HUM_ON_TH_CONFIRM;
    26de:	b0 92 82 02 	sts	0x0282, r11
    26e2:	38 c1       	rjmp	.+624    	; 0x2954 <main+0x139a>
				break;

/*-------------------------------------------------------------------__HUMIDITY_AL__---------------------------*/
			case STATE_EDIT_HUM_AL_TH:
				
				switch( bBtn ){
    26e4:	80 91 18 03 	lds	r24, 0x0318
    26e8:	82 30       	cpi	r24, 0x02	; 2
    26ea:	09 f4       	brne	.+2      	; 0x26ee <main+0x1134>
    26ec:	7a c0       	rjmp	.+244    	; 0x27e2 <main+0x1228>
    26ee:	83 30       	cpi	r24, 0x03	; 3
    26f0:	18 f4       	brcc	.+6      	; 0x26f8 <main+0x113e>
    26f2:	88 23       	and	r24, r24
    26f4:	41 f0       	breq	.+16     	; 0x2706 <main+0x114c>
    26f6:	c0 c8       	rjmp	.-3712   	; 0x1878 <main+0x2be>
    26f8:	84 30       	cpi	r24, 0x04	; 4
    26fa:	09 f4       	brne	.+2      	; 0x26fe <main+0x1144>
    26fc:	cd c0       	rjmp	.+410    	; 0x2898 <main+0x12de>
    26fe:	87 30       	cpi	r24, 0x07	; 7
    2700:	09 f0       	breq	.+2      	; 0x2704 <main+0x114a>
    2702:	ba c8       	rjmp	.-3724   	; 0x1878 <main+0x2be>
    2704:	24 c1       	rjmp	.+584    	; 0x294e <main+0x1394>
					case NO_BTN:
						if( bPrintQuotes ){
    2706:	80 91 cf 02 	lds	r24, 0x02CF
    270a:	88 23       	and	r24, r24
    270c:	09 f4       	brne	.+2      	; 0x2710 <main+0x1156>
    270e:	b4 c8       	rjmp	.-3736   	; 0x1878 <main+0x2be>
							bPrintQuotes=0;
    2710:	10 92 cf 02 	sts	0x02CF, r1
							LCDClear();
    2714:	81 e0       	ldi	r24, 0x01	; 1
    2716:	60 e0       	ldi	r22, 0x00	; 0
    2718:	0e 94 04 01 	call	0x208	; 0x208 <LCDByte>
							bHumAlarmThresholdEditing = bHumAlarmThreshold;
    271c:	80 91 08 03 	lds	r24, 0x0308
    2720:	80 93 90 02 	sts	0x0290, r24
							sprintf(str, "RH= %02d", bHumAlarmThresholdEditing);
    2724:	00 d0       	rcall	.+0      	; 0x2726 <main+0x116c>
    2726:	00 d0       	rcall	.+0      	; 0x2728 <main+0x116e>
    2728:	00 d0       	rcall	.+0      	; 0x272a <main+0x1170>
    272a:	ed b7       	in	r30, 0x3d	; 61
    272c:	fe b7       	in	r31, 0x3e	; 62
    272e:	31 96       	adiw	r30, 0x01	; 1
    2730:	23 ee       	ldi	r18, 0xE3	; 227
    2732:	31 e0       	ldi	r19, 0x01	; 1
    2734:	ad b7       	in	r26, 0x3d	; 61
    2736:	be b7       	in	r27, 0x3e	; 62
    2738:	12 96       	adiw	r26, 0x02	; 2
    273a:	3c 93       	st	X, r19
    273c:	2e 93       	st	-X, r18
    273e:	11 97       	sbiw	r26, 0x01	; 1
    2740:	73 82       	std	Z+3, r7	; 0x03
    2742:	62 82       	std	Z+2, r6	; 0x02
    2744:	84 83       	std	Z+4, r24	; 0x04
    2746:	15 82       	std	Z+5, r1	; 0x05
    2748:	0e 94 03 1c 	call	0x3806	; 0x3806 <sprintf>
							LCDWriteStringXY(0,0, "Edit Hum-Al TH:");
    274c:	4d b7       	in	r20, 0x3d	; 61
    274e:	5e b7       	in	r21, 0x3e	; 62
    2750:	4a 5f       	subi	r20, 0xFA	; 250
    2752:	5f 4f       	sbci	r21, 0xFF	; 255
    2754:	0f b6       	in	r0, 0x3f	; 63
    2756:	f8 94       	cli
    2758:	5e bf       	out	0x3e, r21	; 62
    275a:	0f be       	out	0x3f, r0	; 63
    275c:	4d bf       	out	0x3d, r20	; 61
    275e:	80 e0       	ldi	r24, 0x00	; 0
    2760:	60 e0       	ldi	r22, 0x00	; 0
    2762:	42 ed       	ldi	r20, 0xD2	; 210
    2764:	51 e0       	ldi	r21, 0x01	; 1
    2766:	0e 94 d8 01 	call	0x3b0	; 0x3b0 <LCDWriteStringXY>
							LCDWriteStringXY(6,1, str);
    276a:	86 e0       	ldi	r24, 0x06	; 6
    276c:	61 e0       	ldi	r22, 0x01	; 1
    276e:	43 ee       	ldi	r20, 0xE3	; 227
    2770:	51 e0       	ldi	r21, 0x01	; 1
    2772:	0e 94 d8 01 	call	0x3b0	; 0x3b0 <LCDWriteStringXY>
							LCDWriteString("%");
    2776:	8e e3       	ldi	r24, 0x3E	; 62
    2778:	91 e0       	ldi	r25, 0x01	; 1
    277a:	0e 94 68 01 	call	0x2d0	; 0x2d0 <LCDWriteString>
							LCD_SET_UNDERLINE_CURSOR;
    277e:	8e e0       	ldi	r24, 0x0E	; 14
    2780:	60 e0       	ldi	r22, 0x00	; 0
    2782:	0e 94 04 01 	call	0x208	; 0x208 <LCDByte>
							LCD_CURSOR_LEFT_N(2);
    2786:	10 92 83 02 	sts	0x0283, r1
    278a:	10 92 84 02 	sts	0x0284, r1
    278e:	10 92 85 02 	sts	0x0285, r1
    2792:	10 92 86 02 	sts	0x0286, r1
    2796:	17 c0       	rjmp	.+46     	; 0x27c6 <main+0x120c>
    2798:	80 e1       	ldi	r24, 0x10	; 16
    279a:	60 e0       	ldi	r22, 0x00	; 0
    279c:	0e 94 04 01 	call	0x208	; 0x208 <LCDByte>
    27a0:	80 91 83 02 	lds	r24, 0x0283
    27a4:	90 91 84 02 	lds	r25, 0x0284
    27a8:	a0 91 85 02 	lds	r26, 0x0285
    27ac:	b0 91 86 02 	lds	r27, 0x0286
    27b0:	01 96       	adiw	r24, 0x01	; 1
    27b2:	a1 1d       	adc	r26, r1
    27b4:	b1 1d       	adc	r27, r1
    27b6:	80 93 83 02 	sts	0x0283, r24
    27ba:	90 93 84 02 	sts	0x0284, r25
    27be:	a0 93 85 02 	sts	0x0285, r26
    27c2:	b0 93 86 02 	sts	0x0286, r27
    27c6:	80 91 83 02 	lds	r24, 0x0283
    27ca:	90 91 84 02 	lds	r25, 0x0284
    27ce:	a0 91 85 02 	lds	r26, 0x0285
    27d2:	b0 91 86 02 	lds	r27, 0x0286
    27d6:	82 30       	cpi	r24, 0x02	; 2
    27d8:	91 05       	cpc	r25, r1
    27da:	a1 05       	cpc	r26, r1
    27dc:	b1 05       	cpc	r27, r1
    27de:	e0 f2       	brcs	.-72     	; 0x2798 <main+0x11de>
    27e0:	4b c8       	rjmp	.-3946   	; 0x1878 <main+0x2be>
						}
						break;
						
					case BTN_A:
						if( ++bHumAlarmThresholdEditing > 99 ) bHumAlarmThresholdEditing = 0;
    27e2:	80 91 90 02 	lds	r24, 0x0290
    27e6:	8f 5f       	subi	r24, 0xFF	; 255
    27e8:	80 93 90 02 	sts	0x0290, r24
    27ec:	84 36       	cpi	r24, 0x64	; 100
    27ee:	10 f0       	brcs	.+4      	; 0x27f4 <main+0x123a>
    27f0:	10 92 90 02 	sts	0x0290, r1
						sprintf(str, "%02d", bHumAlarmThresholdEditing);
    27f4:	00 d0       	rcall	.+0      	; 0x27f6 <main+0x123c>
    27f6:	00 d0       	rcall	.+0      	; 0x27f8 <main+0x123e>
    27f8:	00 d0       	rcall	.+0      	; 0x27fa <main+0x1240>
    27fa:	ed b7       	in	r30, 0x3d	; 61
    27fc:	fe b7       	in	r31, 0x3e	; 62
    27fe:	31 96       	adiw	r30, 0x01	; 1
    2800:	23 ee       	ldi	r18, 0xE3	; 227
    2802:	31 e0       	ldi	r19, 0x01	; 1
    2804:	ad b7       	in	r26, 0x3d	; 61
    2806:	be b7       	in	r27, 0x3e	; 62
    2808:	12 96       	adiw	r26, 0x02	; 2
    280a:	3c 93       	st	X, r19
    280c:	2e 93       	st	-X, r18
    280e:	11 97       	sbiw	r26, 0x01	; 1
    2810:	13 83       	std	Z+3, r17	; 0x03
    2812:	02 83       	std	Z+2, r16	; 0x02
    2814:	80 91 90 02 	lds	r24, 0x0290
    2818:	84 83       	std	Z+4, r24	; 0x04
    281a:	15 82       	std	Z+5, r1	; 0x05
    281c:	0e 94 03 1c 	call	0x3806	; 0x3806 <sprintf>
						LCDWriteStringXY(10,1, str);
    2820:	4d b7       	in	r20, 0x3d	; 61
    2822:	5e b7       	in	r21, 0x3e	; 62
    2824:	4a 5f       	subi	r20, 0xFA	; 250
    2826:	5f 4f       	sbci	r21, 0xFF	; 255
    2828:	0f b6       	in	r0, 0x3f	; 63
    282a:	f8 94       	cli
    282c:	5e bf       	out	0x3e, r21	; 62
    282e:	0f be       	out	0x3f, r0	; 63
    2830:	4d bf       	out	0x3d, r20	; 61
    2832:	8a e0       	ldi	r24, 0x0A	; 10
    2834:	61 e0       	ldi	r22, 0x01	; 1
    2836:	43 ee       	ldi	r20, 0xE3	; 227
    2838:	51 e0       	ldi	r21, 0x01	; 1
    283a:	0e 94 d8 01 	call	0x3b0	; 0x3b0 <LCDWriteStringXY>
						LCD_CURSOR_LEFT_N(1);
    283e:	10 92 83 02 	sts	0x0283, r1
    2842:	10 92 84 02 	sts	0x0284, r1
    2846:	10 92 85 02 	sts	0x0285, r1
    284a:	10 92 86 02 	sts	0x0286, r1
    284e:	17 c0       	rjmp	.+46     	; 0x287e <main+0x12c4>
    2850:	80 e1       	ldi	r24, 0x10	; 16
    2852:	60 e0       	ldi	r22, 0x00	; 0
    2854:	0e 94 04 01 	call	0x208	; 0x208 <LCDByte>
    2858:	80 91 83 02 	lds	r24, 0x0283
    285c:	90 91 84 02 	lds	r25, 0x0284
    2860:	a0 91 85 02 	lds	r26, 0x0285
    2864:	b0 91 86 02 	lds	r27, 0x0286
    2868:	01 96       	adiw	r24, 0x01	; 1
    286a:	a1 1d       	adc	r26, r1
    286c:	b1 1d       	adc	r27, r1
    286e:	80 93 83 02 	sts	0x0283, r24
    2872:	90 93 84 02 	sts	0x0284, r25
    2876:	a0 93 85 02 	sts	0x0285, r26
    287a:	b0 93 86 02 	sts	0x0286, r27
    287e:	80 91 83 02 	lds	r24, 0x0283
    2882:	90 91 84 02 	lds	r25, 0x0284
    2886:	a0 91 85 02 	lds	r26, 0x0285
    288a:	b0 91 86 02 	lds	r27, 0x0286
    288e:	00 97       	sbiw	r24, 0x00	; 0
    2890:	a1 05       	cpc	r26, r1
    2892:	b1 05       	cpc	r27, r1
    2894:	e9 f2       	breq	.-70     	; 0x2850 <main+0x1296>
    2896:	61 c0       	rjmp	.+194    	; 0x295a <main+0x13a0>
						bBtn=0;
						break;
						
					case BTN_B:
						if( --bHumAlarmThresholdEditing > 100 ) bHumAlarmThresholdEditing=99;
    2898:	80 91 90 02 	lds	r24, 0x0290
    289c:	81 50       	subi	r24, 0x01	; 1
    289e:	80 93 90 02 	sts	0x0290, r24
    28a2:	85 36       	cpi	r24, 0x65	; 101
    28a4:	10 f0       	brcs	.+4      	; 0x28aa <main+0x12f0>
    28a6:	80 92 90 02 	sts	0x0290, r8
						sprintf(str, "%02d", bHumAlarmThresholdEditing);
    28aa:	00 d0       	rcall	.+0      	; 0x28ac <main+0x12f2>
    28ac:	00 d0       	rcall	.+0      	; 0x28ae <main+0x12f4>
    28ae:	00 d0       	rcall	.+0      	; 0x28b0 <main+0x12f6>
    28b0:	ed b7       	in	r30, 0x3d	; 61
    28b2:	fe b7       	in	r31, 0x3e	; 62
    28b4:	31 96       	adiw	r30, 0x01	; 1
    28b6:	23 ee       	ldi	r18, 0xE3	; 227
    28b8:	31 e0       	ldi	r19, 0x01	; 1
    28ba:	ad b7       	in	r26, 0x3d	; 61
    28bc:	be b7       	in	r27, 0x3e	; 62
    28be:	12 96       	adiw	r26, 0x02	; 2
    28c0:	3c 93       	st	X, r19
    28c2:	2e 93       	st	-X, r18
    28c4:	11 97       	sbiw	r26, 0x01	; 1
    28c6:	13 83       	std	Z+3, r17	; 0x03
    28c8:	02 83       	std	Z+2, r16	; 0x02
    28ca:	80 91 90 02 	lds	r24, 0x0290
    28ce:	84 83       	std	Z+4, r24	; 0x04
    28d0:	15 82       	std	Z+5, r1	; 0x05
    28d2:	0e 94 03 1c 	call	0x3806	; 0x3806 <sprintf>
						LCDWriteStringXY(10,1, str);
    28d6:	4d b7       	in	r20, 0x3d	; 61
    28d8:	5e b7       	in	r21, 0x3e	; 62
    28da:	4a 5f       	subi	r20, 0xFA	; 250
    28dc:	5f 4f       	sbci	r21, 0xFF	; 255
    28de:	0f b6       	in	r0, 0x3f	; 63
    28e0:	f8 94       	cli
    28e2:	5e bf       	out	0x3e, r21	; 62
    28e4:	0f be       	out	0x3f, r0	; 63
    28e6:	4d bf       	out	0x3d, r20	; 61
    28e8:	8a e0       	ldi	r24, 0x0A	; 10
    28ea:	61 e0       	ldi	r22, 0x01	; 1
    28ec:	43 ee       	ldi	r20, 0xE3	; 227
    28ee:	51 e0       	ldi	r21, 0x01	; 1
    28f0:	0e 94 d8 01 	call	0x3b0	; 0x3b0 <LCDWriteStringXY>
						LCD_CURSOR_LEFT_N(1);
    28f4:	10 92 83 02 	sts	0x0283, r1
    28f8:	10 92 84 02 	sts	0x0284, r1
    28fc:	10 92 85 02 	sts	0x0285, r1
    2900:	10 92 86 02 	sts	0x0286, r1
    2904:	17 c0       	rjmp	.+46     	; 0x2934 <main+0x137a>
    2906:	80 e1       	ldi	r24, 0x10	; 16
    2908:	60 e0       	ldi	r22, 0x00	; 0
    290a:	0e 94 04 01 	call	0x208	; 0x208 <LCDByte>
    290e:	80 91 83 02 	lds	r24, 0x0283
    2912:	90 91 84 02 	lds	r25, 0x0284
    2916:	a0 91 85 02 	lds	r26, 0x0285
    291a:	b0 91 86 02 	lds	r27, 0x0286
    291e:	01 96       	adiw	r24, 0x01	; 1
    2920:	a1 1d       	adc	r26, r1
    2922:	b1 1d       	adc	r27, r1
    2924:	80 93 83 02 	sts	0x0283, r24
    2928:	90 93 84 02 	sts	0x0284, r25
    292c:	a0 93 85 02 	sts	0x0285, r26
    2930:	b0 93 86 02 	sts	0x0286, r27
    2934:	80 91 83 02 	lds	r24, 0x0283
    2938:	90 91 84 02 	lds	r25, 0x0284
    293c:	a0 91 85 02 	lds	r26, 0x0285
    2940:	b0 91 86 02 	lds	r27, 0x0286
    2944:	00 97       	sbiw	r24, 0x00	; 0
    2946:	a1 05       	cpc	r26, r1
    2948:	b1 05       	cpc	r27, r1
    294a:	e9 f2       	breq	.-70     	; 0x2906 <main+0x134c>
    294c:	06 c0       	rjmp	.+12     	; 0x295a <main+0x13a0>
						bBtn=0;
						break;
						
					case BTN_C_LONG:
						bState = STATE_EDIT_HUM_AL_TH_CONFIRM;
    294e:	59 e0       	ldi	r21, 0x09	; 9
    2950:	50 93 82 02 	sts	0x0282, r21
						bPrintQuotes=1;
    2954:	81 e0       	ldi	r24, 0x01	; 1
    2956:	80 93 cf 02 	sts	0x02CF, r24
						bBtn=0;
    295a:	10 92 18 03 	sts	0x0318, r1
						break;
    295e:	0c 94 3c 0c 	jmp	0x1878	; 0x1878 <main+0x2be>
				break;
				

/*--------------------------------------------------------------__HUMIDITY_AL_confirm__-------------------------*/
			case STATE_EDIT_HUM_AL_TH_CONFIRM:
				vConfirmState();
    2962:	0e 94 f7 07 	call	0xfee	; 0xfee <vConfirmState>
    2966:	0c 94 3c 0c 	jmp	0x1878	; 0x1878 <main+0x2be>

0000296a <_round>:
		LCDWriteStringXY(CLOCK_CURSOR_POSITION+2, 0, " ");
		bTimeCommaState=1;
	}
}

int _round(double x){
    296a:	ef 92       	push	r14
    296c:	ff 92       	push	r15
    296e:	0f 93       	push	r16
    2970:	1f 93       	push	r17
    2972:	cf 93       	push	r28
    2974:	df 93       	push	r29
    2976:	7b 01       	movw	r14, r22
    2978:	8c 01       	movw	r16, r24
	if((x-((int)x))>0.5) return ((int)x)+1;
    297a:	0e 94 35 19 	call	0x326a	; 0x326a <__fixsfsi>
    297e:	eb 01       	movw	r28, r22
    2980:	be 01       	movw	r22, r28
    2982:	88 27       	eor	r24, r24
    2984:	77 fd       	sbrc	r23, 7
    2986:	80 95       	com	r24
    2988:	98 2f       	mov	r25, r24
    298a:	0e 94 68 19 	call	0x32d0	; 0x32d0 <__floatsisf>
    298e:	9b 01       	movw	r18, r22
    2990:	ac 01       	movw	r20, r24
    2992:	c8 01       	movw	r24, r16
    2994:	b7 01       	movw	r22, r14
    2996:	0e 94 64 18 	call	0x30c8	; 0x30c8 <__subsf3>
    299a:	20 e0       	ldi	r18, 0x00	; 0
    299c:	30 e0       	ldi	r19, 0x00	; 0
    299e:	40 e0       	ldi	r20, 0x00	; 0
    29a0:	5f e3       	ldi	r21, 0x3F	; 63
    29a2:	0e 94 18 1a 	call	0x3430	; 0x3430 <__gesf2>
    29a6:	18 16       	cp	r1, r24
    29a8:	0c f4       	brge	.+2      	; 0x29ac <_round+0x42>
    29aa:	21 96       	adiw	r28, 0x01	; 1
	else return (int)x;
}
    29ac:	ce 01       	movw	r24, r28
    29ae:	df 91       	pop	r29
    29b0:	cf 91       	pop	r28
    29b2:	1f 91       	pop	r17
    29b4:	0f 91       	pop	r16
    29b6:	ff 90       	pop	r15
    29b8:	ef 90       	pop	r14
    29ba:	08 95       	ret

000029bc <vfprintf>:
    29bc:	a3 e1       	ldi	r26, 0x13	; 19
    29be:	b0 e0       	ldi	r27, 0x00	; 0
    29c0:	e4 ee       	ldi	r30, 0xE4	; 228
    29c2:	f4 e1       	ldi	r31, 0x14	; 20
    29c4:	0c 94 9e 1a 	jmp	0x353c	; 0x353c <__prologue_saves__>
    29c8:	6c 01       	movw	r12, r24
    29ca:	7f 87       	std	Y+15, r23	; 0x0f
    29cc:	6e 87       	std	Y+14, r22	; 0x0e
    29ce:	fc 01       	movw	r30, r24
    29d0:	17 82       	std	Z+7, r1	; 0x07
    29d2:	16 82       	std	Z+6, r1	; 0x06
    29d4:	83 81       	ldd	r24, Z+3	; 0x03
    29d6:	81 fd       	sbrc	r24, 1
    29d8:	04 c0       	rjmp	.+8      	; 0x29e2 <vfprintf+0x26>
    29da:	6f c3       	rjmp	.+1758   	; 0x30ba <vfprintf+0x6fe>
    29dc:	4c 85       	ldd	r20, Y+12	; 0x0c
    29de:	5d 85       	ldd	r21, Y+13	; 0x0d
    29e0:	04 c0       	rjmp	.+8      	; 0x29ea <vfprintf+0x2e>
    29e2:	1e 01       	movw	r2, r28
    29e4:	08 94       	sec
    29e6:	21 1c       	adc	r2, r1
    29e8:	31 1c       	adc	r3, r1
    29ea:	f6 01       	movw	r30, r12
    29ec:	93 81       	ldd	r25, Z+3	; 0x03
    29ee:	ee 85       	ldd	r30, Y+14	; 0x0e
    29f0:	ff 85       	ldd	r31, Y+15	; 0x0f
    29f2:	93 fd       	sbrc	r25, 3
    29f4:	85 91       	lpm	r24, Z+
    29f6:	93 ff       	sbrs	r25, 3
    29f8:	81 91       	ld	r24, Z+
    29fa:	ff 87       	std	Y+15, r31	; 0x0f
    29fc:	ee 87       	std	Y+14, r30	; 0x0e
    29fe:	88 23       	and	r24, r24
    2a00:	09 f4       	brne	.+2      	; 0x2a04 <vfprintf+0x48>
    2a02:	57 c3       	rjmp	.+1710   	; 0x30b2 <vfprintf+0x6f6>
    2a04:	85 32       	cpi	r24, 0x25	; 37
    2a06:	41 f4       	brne	.+16     	; 0x2a18 <vfprintf+0x5c>
    2a08:	93 fd       	sbrc	r25, 3
    2a0a:	85 91       	lpm	r24, Z+
    2a0c:	93 ff       	sbrs	r25, 3
    2a0e:	81 91       	ld	r24, Z+
    2a10:	ff 87       	std	Y+15, r31	; 0x0f
    2a12:	ee 87       	std	Y+14, r30	; 0x0e
    2a14:	85 32       	cpi	r24, 0x25	; 37
    2a16:	59 f4       	brne	.+22     	; 0x2a2e <vfprintf+0x72>
    2a18:	90 e0       	ldi	r25, 0x00	; 0
    2a1a:	b6 01       	movw	r22, r12
    2a1c:	4a 8b       	std	Y+18, r20	; 0x12
    2a1e:	5b 8b       	std	Y+19, r21	; 0x13
    2a20:	0e 94 d7 1b 	call	0x37ae	; 0x37ae <fputc>
    2a24:	4a 89       	ldd	r20, Y+18	; 0x12
    2a26:	5b 89       	ldd	r21, Y+19	; 0x13
    2a28:	5d 87       	std	Y+13, r21	; 0x0d
    2a2a:	4c 87       	std	Y+12, r20	; 0x0c
    2a2c:	d7 cf       	rjmp	.-82     	; 0x29dc <vfprintf+0x20>
    2a2e:	10 e0       	ldi	r17, 0x00	; 0
    2a30:	ff 24       	eor	r15, r15
    2a32:	00 e0       	ldi	r16, 0x00	; 0
    2a34:	00 32       	cpi	r16, 0x20	; 32
    2a36:	b0 f4       	brcc	.+44     	; 0x2a64 <vfprintf+0xa8>
    2a38:	8b 32       	cpi	r24, 0x2B	; 43
    2a3a:	69 f0       	breq	.+26     	; 0x2a56 <vfprintf+0x9a>
    2a3c:	8c 32       	cpi	r24, 0x2C	; 44
    2a3e:	28 f4       	brcc	.+10     	; 0x2a4a <vfprintf+0x8e>
    2a40:	80 32       	cpi	r24, 0x20	; 32
    2a42:	51 f0       	breq	.+20     	; 0x2a58 <vfprintf+0x9c>
    2a44:	83 32       	cpi	r24, 0x23	; 35
    2a46:	71 f4       	brne	.+28     	; 0x2a64 <vfprintf+0xa8>
    2a48:	0b c0       	rjmp	.+22     	; 0x2a60 <vfprintf+0xa4>
    2a4a:	8d 32       	cpi	r24, 0x2D	; 45
    2a4c:	39 f0       	breq	.+14     	; 0x2a5c <vfprintf+0xa0>
    2a4e:	80 33       	cpi	r24, 0x30	; 48
    2a50:	49 f4       	brne	.+18     	; 0x2a64 <vfprintf+0xa8>
    2a52:	01 60       	ori	r16, 0x01	; 1
    2a54:	2c c0       	rjmp	.+88     	; 0x2aae <vfprintf+0xf2>
    2a56:	02 60       	ori	r16, 0x02	; 2
    2a58:	04 60       	ori	r16, 0x04	; 4
    2a5a:	29 c0       	rjmp	.+82     	; 0x2aae <vfprintf+0xf2>
    2a5c:	08 60       	ori	r16, 0x08	; 8
    2a5e:	27 c0       	rjmp	.+78     	; 0x2aae <vfprintf+0xf2>
    2a60:	00 61       	ori	r16, 0x10	; 16
    2a62:	25 c0       	rjmp	.+74     	; 0x2aae <vfprintf+0xf2>
    2a64:	07 fd       	sbrc	r16, 7
    2a66:	2e c0       	rjmp	.+92     	; 0x2ac4 <vfprintf+0x108>
    2a68:	28 2f       	mov	r18, r24
    2a6a:	20 53       	subi	r18, 0x30	; 48
    2a6c:	2a 30       	cpi	r18, 0x0A	; 10
    2a6e:	98 f4       	brcc	.+38     	; 0x2a96 <vfprintf+0xda>
    2a70:	06 ff       	sbrs	r16, 6
    2a72:	08 c0       	rjmp	.+16     	; 0x2a84 <vfprintf+0xc8>
    2a74:	81 2f       	mov	r24, r17
    2a76:	88 0f       	add	r24, r24
    2a78:	18 2f       	mov	r17, r24
    2a7a:	11 0f       	add	r17, r17
    2a7c:	11 0f       	add	r17, r17
    2a7e:	18 0f       	add	r17, r24
    2a80:	12 0f       	add	r17, r18
    2a82:	15 c0       	rjmp	.+42     	; 0x2aae <vfprintf+0xf2>
    2a84:	8f 2d       	mov	r24, r15
    2a86:	88 0f       	add	r24, r24
    2a88:	f8 2e       	mov	r15, r24
    2a8a:	ff 0c       	add	r15, r15
    2a8c:	ff 0c       	add	r15, r15
    2a8e:	f8 0e       	add	r15, r24
    2a90:	f2 0e       	add	r15, r18
    2a92:	00 62       	ori	r16, 0x20	; 32
    2a94:	0c c0       	rjmp	.+24     	; 0x2aae <vfprintf+0xf2>
    2a96:	8e 32       	cpi	r24, 0x2E	; 46
    2a98:	21 f4       	brne	.+8      	; 0x2aa2 <vfprintf+0xe6>
    2a9a:	06 fd       	sbrc	r16, 6
    2a9c:	0a c3       	rjmp	.+1556   	; 0x30b2 <vfprintf+0x6f6>
    2a9e:	00 64       	ori	r16, 0x40	; 64
    2aa0:	06 c0       	rjmp	.+12     	; 0x2aae <vfprintf+0xf2>
    2aa2:	8c 36       	cpi	r24, 0x6C	; 108
    2aa4:	11 f4       	brne	.+4      	; 0x2aaa <vfprintf+0xee>
    2aa6:	00 68       	ori	r16, 0x80	; 128
    2aa8:	02 c0       	rjmp	.+4      	; 0x2aae <vfprintf+0xf2>
    2aaa:	88 36       	cpi	r24, 0x68	; 104
    2aac:	59 f4       	brne	.+22     	; 0x2ac4 <vfprintf+0x108>
    2aae:	ee 85       	ldd	r30, Y+14	; 0x0e
    2ab0:	ff 85       	ldd	r31, Y+15	; 0x0f
    2ab2:	93 fd       	sbrc	r25, 3
    2ab4:	85 91       	lpm	r24, Z+
    2ab6:	93 ff       	sbrs	r25, 3
    2ab8:	81 91       	ld	r24, Z+
    2aba:	ff 87       	std	Y+15, r31	; 0x0f
    2abc:	ee 87       	std	Y+14, r30	; 0x0e
    2abe:	88 23       	and	r24, r24
    2ac0:	09 f0       	breq	.+2      	; 0x2ac4 <vfprintf+0x108>
    2ac2:	b8 cf       	rjmp	.-144    	; 0x2a34 <vfprintf+0x78>
    2ac4:	98 2f       	mov	r25, r24
    2ac6:	95 54       	subi	r25, 0x45	; 69
    2ac8:	93 30       	cpi	r25, 0x03	; 3
    2aca:	18 f4       	brcc	.+6      	; 0x2ad2 <vfprintf+0x116>
    2acc:	00 61       	ori	r16, 0x10	; 16
    2ace:	80 5e       	subi	r24, 0xE0	; 224
    2ad0:	06 c0       	rjmp	.+12     	; 0x2ade <vfprintf+0x122>
    2ad2:	98 2f       	mov	r25, r24
    2ad4:	95 56       	subi	r25, 0x65	; 101
    2ad6:	93 30       	cpi	r25, 0x03	; 3
    2ad8:	08 f0       	brcs	.+2      	; 0x2adc <vfprintf+0x120>
    2ada:	9b c1       	rjmp	.+822    	; 0x2e12 <vfprintf+0x456>
    2adc:	0f 7e       	andi	r16, 0xEF	; 239
    2ade:	06 ff       	sbrs	r16, 6
    2ae0:	16 e0       	ldi	r17, 0x06	; 6
    2ae2:	6f e3       	ldi	r22, 0x3F	; 63
    2ae4:	e6 2e       	mov	r14, r22
    2ae6:	e0 22       	and	r14, r16
    2ae8:	85 36       	cpi	r24, 0x65	; 101
    2aea:	19 f4       	brne	.+6      	; 0x2af2 <vfprintf+0x136>
    2aec:	f0 e4       	ldi	r31, 0x40	; 64
    2aee:	ef 2a       	or	r14, r31
    2af0:	07 c0       	rjmp	.+14     	; 0x2b00 <vfprintf+0x144>
    2af2:	86 36       	cpi	r24, 0x66	; 102
    2af4:	19 f4       	brne	.+6      	; 0x2afc <vfprintf+0x140>
    2af6:	20 e8       	ldi	r18, 0x80	; 128
    2af8:	e2 2a       	or	r14, r18
    2afa:	02 c0       	rjmp	.+4      	; 0x2b00 <vfprintf+0x144>
    2afc:	11 11       	cpse	r17, r1
    2afe:	11 50       	subi	r17, 0x01	; 1
    2b00:	e7 fe       	sbrs	r14, 7
    2b02:	06 c0       	rjmp	.+12     	; 0x2b10 <vfprintf+0x154>
    2b04:	1c 33       	cpi	r17, 0x3C	; 60
    2b06:	40 f4       	brcc	.+16     	; 0x2b18 <vfprintf+0x15c>
    2b08:	91 2e       	mov	r9, r17
    2b0a:	93 94       	inc	r9
    2b0c:	27 e0       	ldi	r18, 0x07	; 7
    2b0e:	0b c0       	rjmp	.+22     	; 0x2b26 <vfprintf+0x16a>
    2b10:	18 30       	cpi	r17, 0x08	; 8
    2b12:	30 f4       	brcc	.+12     	; 0x2b20 <vfprintf+0x164>
    2b14:	21 2f       	mov	r18, r17
    2b16:	06 c0       	rjmp	.+12     	; 0x2b24 <vfprintf+0x168>
    2b18:	27 e0       	ldi	r18, 0x07	; 7
    2b1a:	3c e3       	ldi	r19, 0x3C	; 60
    2b1c:	93 2e       	mov	r9, r19
    2b1e:	03 c0       	rjmp	.+6      	; 0x2b26 <vfprintf+0x16a>
    2b20:	27 e0       	ldi	r18, 0x07	; 7
    2b22:	17 e0       	ldi	r17, 0x07	; 7
    2b24:	99 24       	eor	r9, r9
    2b26:	ca 01       	movw	r24, r20
    2b28:	04 96       	adiw	r24, 0x04	; 4
    2b2a:	9d 87       	std	Y+13, r25	; 0x0d
    2b2c:	8c 87       	std	Y+12, r24	; 0x0c
    2b2e:	fa 01       	movw	r30, r20
    2b30:	60 81       	ld	r22, Z
    2b32:	71 81       	ldd	r23, Z+1	; 0x01
    2b34:	82 81       	ldd	r24, Z+2	; 0x02
    2b36:	93 81       	ldd	r25, Z+3	; 0x03
    2b38:	a1 01       	movw	r20, r2
    2b3a:	09 2d       	mov	r16, r9
    2b3c:	0e 94 e9 1a 	call	0x35d2	; 0x35d2 <__ftoa_engine>
    2b40:	5c 01       	movw	r10, r24
    2b42:	69 80       	ldd	r6, Y+1	; 0x01
    2b44:	26 2d       	mov	r18, r6
    2b46:	30 e0       	ldi	r19, 0x00	; 0
    2b48:	39 8b       	std	Y+17, r19	; 0x11
    2b4a:	28 8b       	std	Y+16, r18	; 0x10
    2b4c:	60 fe       	sbrs	r6, 0
    2b4e:	03 c0       	rjmp	.+6      	; 0x2b56 <vfprintf+0x19a>
    2b50:	38 89       	ldd	r19, Y+16	; 0x10
    2b52:	33 ff       	sbrs	r19, 3
    2b54:	06 c0       	rjmp	.+12     	; 0x2b62 <vfprintf+0x1a6>
    2b56:	e1 fc       	sbrc	r14, 1
    2b58:	06 c0       	rjmp	.+12     	; 0x2b66 <vfprintf+0x1aa>
    2b5a:	e2 fe       	sbrs	r14, 2
    2b5c:	06 c0       	rjmp	.+12     	; 0x2b6a <vfprintf+0x1ae>
    2b5e:	00 e2       	ldi	r16, 0x20	; 32
    2b60:	05 c0       	rjmp	.+10     	; 0x2b6c <vfprintf+0x1b0>
    2b62:	0d e2       	ldi	r16, 0x2D	; 45
    2b64:	03 c0       	rjmp	.+6      	; 0x2b6c <vfprintf+0x1b0>
    2b66:	0b e2       	ldi	r16, 0x2B	; 43
    2b68:	01 c0       	rjmp	.+2      	; 0x2b6c <vfprintf+0x1b0>
    2b6a:	00 e0       	ldi	r16, 0x00	; 0
    2b6c:	88 89       	ldd	r24, Y+16	; 0x10
    2b6e:	99 89       	ldd	r25, Y+17	; 0x11
    2b70:	8c 70       	andi	r24, 0x0C	; 12
    2b72:	90 70       	andi	r25, 0x00	; 0
    2b74:	00 97       	sbiw	r24, 0x00	; 0
    2b76:	c1 f1       	breq	.+112    	; 0x2be8 <vfprintf+0x22c>
    2b78:	00 23       	and	r16, r16
    2b7a:	11 f0       	breq	.+4      	; 0x2b80 <vfprintf+0x1c4>
    2b7c:	84 e0       	ldi	r24, 0x04	; 4
    2b7e:	01 c0       	rjmp	.+2      	; 0x2b82 <vfprintf+0x1c6>
    2b80:	83 e0       	ldi	r24, 0x03	; 3
    2b82:	8f 15       	cp	r24, r15
    2b84:	58 f4       	brcc	.+22     	; 0x2b9c <vfprintf+0x1e0>
    2b86:	f8 1a       	sub	r15, r24
    2b88:	e3 fc       	sbrc	r14, 3
    2b8a:	09 c0       	rjmp	.+18     	; 0x2b9e <vfprintf+0x1e2>
    2b8c:	80 e2       	ldi	r24, 0x20	; 32
    2b8e:	90 e0       	ldi	r25, 0x00	; 0
    2b90:	b6 01       	movw	r22, r12
    2b92:	0e 94 d7 1b 	call	0x37ae	; 0x37ae <fputc>
    2b96:	fa 94       	dec	r15
    2b98:	c9 f7       	brne	.-14     	; 0x2b8c <vfprintf+0x1d0>
    2b9a:	01 c0       	rjmp	.+2      	; 0x2b9e <vfprintf+0x1e2>
    2b9c:	ff 24       	eor	r15, r15
    2b9e:	00 23       	and	r16, r16
    2ba0:	29 f0       	breq	.+10     	; 0x2bac <vfprintf+0x1f0>
    2ba2:	80 2f       	mov	r24, r16
    2ba4:	90 e0       	ldi	r25, 0x00	; 0
    2ba6:	b6 01       	movw	r22, r12
    2ba8:	0e 94 d7 1b 	call	0x37ae	; 0x37ae <fputc>
    2bac:	88 89       	ldd	r24, Y+16	; 0x10
    2bae:	83 fd       	sbrc	r24, 3
    2bb0:	03 c0       	rjmp	.+6      	; 0x2bb8 <vfprintf+0x1fc>
    2bb2:	0c e6       	ldi	r16, 0x6C	; 108
    2bb4:	10 e0       	ldi	r17, 0x00	; 0
    2bb6:	0e c0       	rjmp	.+28     	; 0x2bd4 <vfprintf+0x218>
    2bb8:	08 e6       	ldi	r16, 0x68	; 104
    2bba:	10 e0       	ldi	r17, 0x00	; 0
    2bbc:	0b c0       	rjmp	.+22     	; 0x2bd4 <vfprintf+0x218>
    2bbe:	a1 14       	cp	r10, r1
    2bc0:	b1 04       	cpc	r11, r1
    2bc2:	09 f0       	breq	.+2      	; 0x2bc6 <vfprintf+0x20a>
    2bc4:	80 52       	subi	r24, 0x20	; 32
    2bc6:	90 e0       	ldi	r25, 0x00	; 0
    2bc8:	b6 01       	movw	r22, r12
    2bca:	0e 94 d7 1b 	call	0x37ae	; 0x37ae <fputc>
    2bce:	0f 5f       	subi	r16, 0xFF	; 255
    2bd0:	1f 4f       	sbci	r17, 0xFF	; 255
    2bd2:	05 c0       	rjmp	.+10     	; 0x2bde <vfprintf+0x222>
    2bd4:	ae 2c       	mov	r10, r14
    2bd6:	bb 24       	eor	r11, r11
    2bd8:	90 e1       	ldi	r25, 0x10	; 16
    2bda:	a9 22       	and	r10, r25
    2bdc:	bb 24       	eor	r11, r11
    2bde:	f8 01       	movw	r30, r16
    2be0:	84 91       	lpm	r24, Z+
    2be2:	88 23       	and	r24, r24
    2be4:	61 f7       	brne	.-40     	; 0x2bbe <vfprintf+0x202>
    2be6:	62 c2       	rjmp	.+1220   	; 0x30ac <vfprintf+0x6f0>
    2be8:	e7 fe       	sbrs	r14, 7
    2bea:	0e c0       	rjmp	.+28     	; 0x2c08 <vfprintf+0x24c>
    2bec:	9a 0c       	add	r9, r10
    2bee:	f8 89       	ldd	r31, Y+16	; 0x10
    2bf0:	f4 ff       	sbrs	r31, 4
    2bf2:	04 c0       	rjmp	.+8      	; 0x2bfc <vfprintf+0x240>
    2bf4:	8a 81       	ldd	r24, Y+2	; 0x02
    2bf6:	81 33       	cpi	r24, 0x31	; 49
    2bf8:	09 f4       	brne	.+2      	; 0x2bfc <vfprintf+0x240>
    2bfa:	9a 94       	dec	r9
    2bfc:	19 14       	cp	r1, r9
    2bfe:	54 f5       	brge	.+84     	; 0x2c54 <vfprintf+0x298>
    2c00:	29 2d       	mov	r18, r9
    2c02:	29 30       	cpi	r18, 0x09	; 9
    2c04:	50 f5       	brcc	.+84     	; 0x2c5a <vfprintf+0x29e>
    2c06:	2d c0       	rjmp	.+90     	; 0x2c62 <vfprintf+0x2a6>
    2c08:	e6 fc       	sbrc	r14, 6
    2c0a:	2b c0       	rjmp	.+86     	; 0x2c62 <vfprintf+0x2a6>
    2c0c:	81 2f       	mov	r24, r17
    2c0e:	90 e0       	ldi	r25, 0x00	; 0
    2c10:	8a 15       	cp	r24, r10
    2c12:	9b 05       	cpc	r25, r11
    2c14:	4c f0       	brlt	.+18     	; 0x2c28 <vfprintf+0x26c>
    2c16:	3c ef       	ldi	r19, 0xFC	; 252
    2c18:	a3 16       	cp	r10, r19
    2c1a:	3f ef       	ldi	r19, 0xFF	; 255
    2c1c:	b3 06       	cpc	r11, r19
    2c1e:	24 f0       	brlt	.+8      	; 0x2c28 <vfprintf+0x26c>
    2c20:	80 e8       	ldi	r24, 0x80	; 128
    2c22:	e8 2a       	or	r14, r24
    2c24:	01 c0       	rjmp	.+2      	; 0x2c28 <vfprintf+0x26c>
    2c26:	11 50       	subi	r17, 0x01	; 1
    2c28:	11 23       	and	r17, r17
    2c2a:	49 f0       	breq	.+18     	; 0x2c3e <vfprintf+0x282>
    2c2c:	e2 e0       	ldi	r30, 0x02	; 2
    2c2e:	f0 e0       	ldi	r31, 0x00	; 0
    2c30:	ec 0f       	add	r30, r28
    2c32:	fd 1f       	adc	r31, r29
    2c34:	e1 0f       	add	r30, r17
    2c36:	f1 1d       	adc	r31, r1
    2c38:	80 81       	ld	r24, Z
    2c3a:	80 33       	cpi	r24, 0x30	; 48
    2c3c:	a1 f3       	breq	.-24     	; 0x2c26 <vfprintf+0x26a>
    2c3e:	e7 fe       	sbrs	r14, 7
    2c40:	10 c0       	rjmp	.+32     	; 0x2c62 <vfprintf+0x2a6>
    2c42:	91 2e       	mov	r9, r17
    2c44:	93 94       	inc	r9
    2c46:	81 2f       	mov	r24, r17
    2c48:	90 e0       	ldi	r25, 0x00	; 0
    2c4a:	a8 16       	cp	r10, r24
    2c4c:	b9 06       	cpc	r11, r25
    2c4e:	44 f4       	brge	.+16     	; 0x2c60 <vfprintf+0x2a4>
    2c50:	1a 19       	sub	r17, r10
    2c52:	07 c0       	rjmp	.+14     	; 0x2c62 <vfprintf+0x2a6>
    2c54:	99 24       	eor	r9, r9
    2c56:	93 94       	inc	r9
    2c58:	04 c0       	rjmp	.+8      	; 0x2c62 <vfprintf+0x2a6>
    2c5a:	98 e0       	ldi	r25, 0x08	; 8
    2c5c:	99 2e       	mov	r9, r25
    2c5e:	01 c0       	rjmp	.+2      	; 0x2c62 <vfprintf+0x2a6>
    2c60:	10 e0       	ldi	r17, 0x00	; 0
    2c62:	e7 fe       	sbrs	r14, 7
    2c64:	07 c0       	rjmp	.+14     	; 0x2c74 <vfprintf+0x2b8>
    2c66:	1a 14       	cp	r1, r10
    2c68:	1b 04       	cpc	r1, r11
    2c6a:	3c f4       	brge	.+14     	; 0x2c7a <vfprintf+0x2be>
    2c6c:	95 01       	movw	r18, r10
    2c6e:	2f 5f       	subi	r18, 0xFF	; 255
    2c70:	3f 4f       	sbci	r19, 0xFF	; 255
    2c72:	05 c0       	rjmp	.+10     	; 0x2c7e <vfprintf+0x2c2>
    2c74:	25 e0       	ldi	r18, 0x05	; 5
    2c76:	30 e0       	ldi	r19, 0x00	; 0
    2c78:	02 c0       	rjmp	.+4      	; 0x2c7e <vfprintf+0x2c2>
    2c7a:	21 e0       	ldi	r18, 0x01	; 1
    2c7c:	30 e0       	ldi	r19, 0x00	; 0
    2c7e:	00 23       	and	r16, r16
    2c80:	11 f0       	breq	.+4      	; 0x2c86 <vfprintf+0x2ca>
    2c82:	2f 5f       	subi	r18, 0xFF	; 255
    2c84:	3f 4f       	sbci	r19, 0xFF	; 255
    2c86:	11 23       	and	r17, r17
    2c88:	29 f0       	breq	.+10     	; 0x2c94 <vfprintf+0x2d8>
    2c8a:	81 2f       	mov	r24, r17
    2c8c:	90 e0       	ldi	r25, 0x00	; 0
    2c8e:	01 96       	adiw	r24, 0x01	; 1
    2c90:	28 0f       	add	r18, r24
    2c92:	39 1f       	adc	r19, r25
    2c94:	8f 2d       	mov	r24, r15
    2c96:	90 e0       	ldi	r25, 0x00	; 0
    2c98:	28 17       	cp	r18, r24
    2c9a:	39 07       	cpc	r19, r25
    2c9c:	14 f4       	brge	.+4      	; 0x2ca2 <vfprintf+0x2e6>
    2c9e:	f2 1a       	sub	r15, r18
    2ca0:	01 c0       	rjmp	.+2      	; 0x2ca4 <vfprintf+0x2e8>
    2ca2:	ff 24       	eor	r15, r15
    2ca4:	4e 2c       	mov	r4, r14
    2ca6:	55 24       	eor	r5, r5
    2ca8:	c2 01       	movw	r24, r4
    2caa:	89 70       	andi	r24, 0x09	; 9
    2cac:	90 70       	andi	r25, 0x00	; 0
    2cae:	00 97       	sbiw	r24, 0x00	; 0
    2cb0:	49 f4       	brne	.+18     	; 0x2cc4 <vfprintf+0x308>
    2cb2:	06 c0       	rjmp	.+12     	; 0x2cc0 <vfprintf+0x304>
    2cb4:	80 e2       	ldi	r24, 0x20	; 32
    2cb6:	90 e0       	ldi	r25, 0x00	; 0
    2cb8:	b6 01       	movw	r22, r12
    2cba:	0e 94 d7 1b 	call	0x37ae	; 0x37ae <fputc>
    2cbe:	fa 94       	dec	r15
    2cc0:	ff 20       	and	r15, r15
    2cc2:	c1 f7       	brne	.-16     	; 0x2cb4 <vfprintf+0x2f8>
    2cc4:	00 23       	and	r16, r16
    2cc6:	29 f0       	breq	.+10     	; 0x2cd2 <vfprintf+0x316>
    2cc8:	80 2f       	mov	r24, r16
    2cca:	90 e0       	ldi	r25, 0x00	; 0
    2ccc:	b6 01       	movw	r22, r12
    2cce:	0e 94 d7 1b 	call	0x37ae	; 0x37ae <fputc>
    2cd2:	43 fc       	sbrc	r4, 3
    2cd4:	09 c0       	rjmp	.+18     	; 0x2ce8 <vfprintf+0x32c>
    2cd6:	06 c0       	rjmp	.+12     	; 0x2ce4 <vfprintf+0x328>
    2cd8:	80 e3       	ldi	r24, 0x30	; 48
    2cda:	90 e0       	ldi	r25, 0x00	; 0
    2cdc:	b6 01       	movw	r22, r12
    2cde:	0e 94 d7 1b 	call	0x37ae	; 0x37ae <fputc>
    2ce2:	fa 94       	dec	r15
    2ce4:	ff 20       	and	r15, r15
    2ce6:	c1 f7       	brne	.-16     	; 0x2cd8 <vfprintf+0x31c>
    2ce8:	e7 fe       	sbrs	r14, 7
    2cea:	46 c0       	rjmp	.+140    	; 0x2d78 <vfprintf+0x3bc>
    2cec:	35 01       	movw	r6, r10
    2cee:	b7 fe       	sbrs	r11, 7
    2cf0:	02 c0       	rjmp	.+4      	; 0x2cf6 <vfprintf+0x33a>
    2cf2:	66 24       	eor	r6, r6
    2cf4:	77 24       	eor	r7, r7
    2cf6:	25 01       	movw	r4, r10
    2cf8:	08 94       	sec
    2cfa:	41 1c       	adc	r4, r1
    2cfc:	51 1c       	adc	r5, r1
    2cfe:	46 18       	sub	r4, r6
    2d00:	57 08       	sbc	r5, r7
    2d02:	42 0c       	add	r4, r2
    2d04:	53 1c       	adc	r5, r3
    2d06:	f5 01       	movw	r30, r10
    2d08:	e9 19       	sub	r30, r9
    2d0a:	f1 09       	sbc	r31, r1
    2d0c:	4f 01       	movw	r8, r30
    2d0e:	81 2f       	mov	r24, r17
    2d10:	90 e0       	ldi	r25, 0x00	; 0
    2d12:	00 27       	eor	r16, r16
    2d14:	11 27       	eor	r17, r17
    2d16:	08 1b       	sub	r16, r24
    2d18:	19 0b       	sbc	r17, r25
    2d1a:	ff ef       	ldi	r31, 0xFF	; 255
    2d1c:	6f 16       	cp	r6, r31
    2d1e:	ff ef       	ldi	r31, 0xFF	; 255
    2d20:	7f 06       	cpc	r7, r31
    2d22:	29 f4       	brne	.+10     	; 0x2d2e <vfprintf+0x372>
    2d24:	8e e2       	ldi	r24, 0x2E	; 46
    2d26:	90 e0       	ldi	r25, 0x00	; 0
    2d28:	b6 01       	movw	r22, r12
    2d2a:	0e 94 d7 1b 	call	0x37ae	; 0x37ae <fputc>
    2d2e:	a6 14       	cp	r10, r6
    2d30:	b7 04       	cpc	r11, r7
    2d32:	34 f0       	brlt	.+12     	; 0x2d40 <vfprintf+0x384>
    2d34:	86 14       	cp	r8, r6
    2d36:	97 04       	cpc	r9, r7
    2d38:	1c f4       	brge	.+6      	; 0x2d40 <vfprintf+0x384>
    2d3a:	f2 01       	movw	r30, r4
    2d3c:	80 81       	ld	r24, Z
    2d3e:	01 c0       	rjmp	.+2      	; 0x2d42 <vfprintf+0x386>
    2d40:	80 e3       	ldi	r24, 0x30	; 48
    2d42:	08 94       	sec
    2d44:	61 08       	sbc	r6, r1
    2d46:	71 08       	sbc	r7, r1
    2d48:	08 94       	sec
    2d4a:	41 1c       	adc	r4, r1
    2d4c:	51 1c       	adc	r5, r1
    2d4e:	60 16       	cp	r6, r16
    2d50:	71 06       	cpc	r7, r17
    2d52:	2c f0       	brlt	.+10     	; 0x2d5e <vfprintf+0x3a2>
    2d54:	90 e0       	ldi	r25, 0x00	; 0
    2d56:	b6 01       	movw	r22, r12
    2d58:	0e 94 d7 1b 	call	0x37ae	; 0x37ae <fputc>
    2d5c:	de cf       	rjmp	.-68     	; 0x2d1a <vfprintf+0x35e>
    2d5e:	6a 14       	cp	r6, r10
    2d60:	7b 04       	cpc	r7, r11
    2d62:	41 f4       	brne	.+16     	; 0x2d74 <vfprintf+0x3b8>
    2d64:	9a 81       	ldd	r25, Y+2	; 0x02
    2d66:	96 33       	cpi	r25, 0x36	; 54
    2d68:	20 f4       	brcc	.+8      	; 0x2d72 <vfprintf+0x3b6>
    2d6a:	95 33       	cpi	r25, 0x35	; 53
    2d6c:	19 f4       	brne	.+6      	; 0x2d74 <vfprintf+0x3b8>
    2d6e:	f8 89       	ldd	r31, Y+16	; 0x10
    2d70:	f4 ff       	sbrs	r31, 4
    2d72:	81 e3       	ldi	r24, 0x31	; 49
    2d74:	90 e0       	ldi	r25, 0x00	; 0
    2d76:	49 c0       	rjmp	.+146    	; 0x2e0a <vfprintf+0x44e>
    2d78:	8a 81       	ldd	r24, Y+2	; 0x02
    2d7a:	81 33       	cpi	r24, 0x31	; 49
    2d7c:	11 f0       	breq	.+4      	; 0x2d82 <vfprintf+0x3c6>
    2d7e:	2f ee       	ldi	r18, 0xEF	; 239
    2d80:	62 22       	and	r6, r18
    2d82:	90 e0       	ldi	r25, 0x00	; 0
    2d84:	b6 01       	movw	r22, r12
    2d86:	0e 94 d7 1b 	call	0x37ae	; 0x37ae <fputc>
    2d8a:	11 23       	and	r17, r17
    2d8c:	89 f0       	breq	.+34     	; 0x2db0 <vfprintf+0x3f4>
    2d8e:	8e e2       	ldi	r24, 0x2E	; 46
    2d90:	90 e0       	ldi	r25, 0x00	; 0
    2d92:	b6 01       	movw	r22, r12
    2d94:	0e 94 d7 1b 	call	0x37ae	; 0x37ae <fputc>
    2d98:	02 e0       	ldi	r16, 0x02	; 2
    2d9a:	f1 01       	movw	r30, r2
    2d9c:	e0 0f       	add	r30, r16
    2d9e:	f1 1d       	adc	r31, r1
    2da0:	0f 5f       	subi	r16, 0xFF	; 255
    2da2:	80 81       	ld	r24, Z
    2da4:	90 e0       	ldi	r25, 0x00	; 0
    2da6:	b6 01       	movw	r22, r12
    2da8:	0e 94 d7 1b 	call	0x37ae	; 0x37ae <fputc>
    2dac:	11 50       	subi	r17, 0x01	; 1
    2dae:	a9 f7       	brne	.-22     	; 0x2d9a <vfprintf+0x3de>
    2db0:	44 fe       	sbrs	r4, 4
    2db2:	03 c0       	rjmp	.+6      	; 0x2dba <vfprintf+0x3fe>
    2db4:	85 e4       	ldi	r24, 0x45	; 69
    2db6:	90 e0       	ldi	r25, 0x00	; 0
    2db8:	02 c0       	rjmp	.+4      	; 0x2dbe <vfprintf+0x402>
    2dba:	85 e6       	ldi	r24, 0x65	; 101
    2dbc:	90 e0       	ldi	r25, 0x00	; 0
    2dbe:	b6 01       	movw	r22, r12
    2dc0:	0e 94 d7 1b 	call	0x37ae	; 0x37ae <fputc>
    2dc4:	b7 fc       	sbrc	r11, 7
    2dc6:	05 c0       	rjmp	.+10     	; 0x2dd2 <vfprintf+0x416>
    2dc8:	a1 14       	cp	r10, r1
    2dca:	b1 04       	cpc	r11, r1
    2dcc:	41 f4       	brne	.+16     	; 0x2dde <vfprintf+0x422>
    2dce:	64 fe       	sbrs	r6, 4
    2dd0:	06 c0       	rjmp	.+12     	; 0x2dde <vfprintf+0x422>
    2dd2:	b0 94       	com	r11
    2dd4:	a1 94       	neg	r10
    2dd6:	b1 08       	sbc	r11, r1
    2dd8:	b3 94       	inc	r11
    2dda:	8d e2       	ldi	r24, 0x2D	; 45
    2ddc:	01 c0       	rjmp	.+2      	; 0x2de0 <vfprintf+0x424>
    2dde:	8b e2       	ldi	r24, 0x2B	; 43
    2de0:	90 e0       	ldi	r25, 0x00	; 0
    2de2:	b6 01       	movw	r22, r12
    2de4:	0e 94 d7 1b 	call	0x37ae	; 0x37ae <fputc>
    2de8:	80 e3       	ldi	r24, 0x30	; 48
    2dea:	05 c0       	rjmp	.+10     	; 0x2df6 <vfprintf+0x43a>
    2dec:	8f 5f       	subi	r24, 0xFF	; 255
    2dee:	e6 ef       	ldi	r30, 0xF6	; 246
    2df0:	ff ef       	ldi	r31, 0xFF	; 255
    2df2:	ae 0e       	add	r10, r30
    2df4:	bf 1e       	adc	r11, r31
    2df6:	fa e0       	ldi	r31, 0x0A	; 10
    2df8:	af 16       	cp	r10, r31
    2dfa:	b1 04       	cpc	r11, r1
    2dfc:	bc f7       	brge	.-18     	; 0x2dec <vfprintf+0x430>
    2dfe:	90 e0       	ldi	r25, 0x00	; 0
    2e00:	b6 01       	movw	r22, r12
    2e02:	0e 94 d7 1b 	call	0x37ae	; 0x37ae <fputc>
    2e06:	c5 01       	movw	r24, r10
    2e08:	c0 96       	adiw	r24, 0x30	; 48
    2e0a:	b6 01       	movw	r22, r12
    2e0c:	0e 94 d7 1b 	call	0x37ae	; 0x37ae <fputc>
    2e10:	4d c1       	rjmp	.+666    	; 0x30ac <vfprintf+0x6f0>
    2e12:	83 36       	cpi	r24, 0x63	; 99
    2e14:	31 f0       	breq	.+12     	; 0x2e22 <vfprintf+0x466>
    2e16:	83 37       	cpi	r24, 0x73	; 115
    2e18:	89 f0       	breq	.+34     	; 0x2e3c <vfprintf+0x480>
    2e1a:	83 35       	cpi	r24, 0x53	; 83
    2e1c:	09 f0       	breq	.+2      	; 0x2e20 <vfprintf+0x464>
    2e1e:	59 c0       	rjmp	.+178    	; 0x2ed2 <vfprintf+0x516>
    2e20:	22 c0       	rjmp	.+68     	; 0x2e66 <vfprintf+0x4aa>
    2e22:	9a 01       	movw	r18, r20
    2e24:	2e 5f       	subi	r18, 0xFE	; 254
    2e26:	3f 4f       	sbci	r19, 0xFF	; 255
    2e28:	3d 87       	std	Y+13, r19	; 0x0d
    2e2a:	2c 87       	std	Y+12, r18	; 0x0c
    2e2c:	fa 01       	movw	r30, r20
    2e2e:	80 81       	ld	r24, Z
    2e30:	89 83       	std	Y+1, r24	; 0x01
    2e32:	31 01       	movw	r6, r2
    2e34:	81 e0       	ldi	r24, 0x01	; 1
    2e36:	a8 2e       	mov	r10, r24
    2e38:	b1 2c       	mov	r11, r1
    2e3a:	13 c0       	rjmp	.+38     	; 0x2e62 <vfprintf+0x4a6>
    2e3c:	9a 01       	movw	r18, r20
    2e3e:	2e 5f       	subi	r18, 0xFE	; 254
    2e40:	3f 4f       	sbci	r19, 0xFF	; 255
    2e42:	3d 87       	std	Y+13, r19	; 0x0d
    2e44:	2c 87       	std	Y+12, r18	; 0x0c
    2e46:	fa 01       	movw	r30, r20
    2e48:	60 80       	ld	r6, Z
    2e4a:	71 80       	ldd	r7, Z+1	; 0x01
    2e4c:	06 ff       	sbrs	r16, 6
    2e4e:	03 c0       	rjmp	.+6      	; 0x2e56 <vfprintf+0x49a>
    2e50:	61 2f       	mov	r22, r17
    2e52:	70 e0       	ldi	r23, 0x00	; 0
    2e54:	02 c0       	rjmp	.+4      	; 0x2e5a <vfprintf+0x49e>
    2e56:	6f ef       	ldi	r22, 0xFF	; 255
    2e58:	7f ef       	ldi	r23, 0xFF	; 255
    2e5a:	c3 01       	movw	r24, r6
    2e5c:	0e 94 cc 1b 	call	0x3798	; 0x3798 <strnlen>
    2e60:	5c 01       	movw	r10, r24
    2e62:	0f 77       	andi	r16, 0x7F	; 127
    2e64:	14 c0       	rjmp	.+40     	; 0x2e8e <vfprintf+0x4d2>
    2e66:	9a 01       	movw	r18, r20
    2e68:	2e 5f       	subi	r18, 0xFE	; 254
    2e6a:	3f 4f       	sbci	r19, 0xFF	; 255
    2e6c:	3d 87       	std	Y+13, r19	; 0x0d
    2e6e:	2c 87       	std	Y+12, r18	; 0x0c
    2e70:	fa 01       	movw	r30, r20
    2e72:	60 80       	ld	r6, Z
    2e74:	71 80       	ldd	r7, Z+1	; 0x01
    2e76:	06 ff       	sbrs	r16, 6
    2e78:	03 c0       	rjmp	.+6      	; 0x2e80 <vfprintf+0x4c4>
    2e7a:	61 2f       	mov	r22, r17
    2e7c:	70 e0       	ldi	r23, 0x00	; 0
    2e7e:	02 c0       	rjmp	.+4      	; 0x2e84 <vfprintf+0x4c8>
    2e80:	6f ef       	ldi	r22, 0xFF	; 255
    2e82:	7f ef       	ldi	r23, 0xFF	; 255
    2e84:	c3 01       	movw	r24, r6
    2e86:	0e 94 c1 1b 	call	0x3782	; 0x3782 <strnlen_P>
    2e8a:	5c 01       	movw	r10, r24
    2e8c:	00 68       	ori	r16, 0x80	; 128
    2e8e:	03 fd       	sbrc	r16, 3
    2e90:	1c c0       	rjmp	.+56     	; 0x2eca <vfprintf+0x50e>
    2e92:	06 c0       	rjmp	.+12     	; 0x2ea0 <vfprintf+0x4e4>
    2e94:	80 e2       	ldi	r24, 0x20	; 32
    2e96:	90 e0       	ldi	r25, 0x00	; 0
    2e98:	b6 01       	movw	r22, r12
    2e9a:	0e 94 d7 1b 	call	0x37ae	; 0x37ae <fputc>
    2e9e:	fa 94       	dec	r15
    2ea0:	8f 2d       	mov	r24, r15
    2ea2:	90 e0       	ldi	r25, 0x00	; 0
    2ea4:	a8 16       	cp	r10, r24
    2ea6:	b9 06       	cpc	r11, r25
    2ea8:	a8 f3       	brcs	.-22     	; 0x2e94 <vfprintf+0x4d8>
    2eaa:	0f c0       	rjmp	.+30     	; 0x2eca <vfprintf+0x50e>
    2eac:	f3 01       	movw	r30, r6
    2eae:	07 fd       	sbrc	r16, 7
    2eb0:	85 91       	lpm	r24, Z+
    2eb2:	07 ff       	sbrs	r16, 7
    2eb4:	81 91       	ld	r24, Z+
    2eb6:	3f 01       	movw	r6, r30
    2eb8:	90 e0       	ldi	r25, 0x00	; 0
    2eba:	b6 01       	movw	r22, r12
    2ebc:	0e 94 d7 1b 	call	0x37ae	; 0x37ae <fputc>
    2ec0:	f1 10       	cpse	r15, r1
    2ec2:	fa 94       	dec	r15
    2ec4:	08 94       	sec
    2ec6:	a1 08       	sbc	r10, r1
    2ec8:	b1 08       	sbc	r11, r1
    2eca:	a1 14       	cp	r10, r1
    2ecc:	b1 04       	cpc	r11, r1
    2ece:	71 f7       	brne	.-36     	; 0x2eac <vfprintf+0x4f0>
    2ed0:	ed c0       	rjmp	.+474    	; 0x30ac <vfprintf+0x6f0>
    2ed2:	84 36       	cpi	r24, 0x64	; 100
    2ed4:	11 f0       	breq	.+4      	; 0x2eda <vfprintf+0x51e>
    2ed6:	89 36       	cpi	r24, 0x69	; 105
    2ed8:	61 f5       	brne	.+88     	; 0x2f32 <vfprintf+0x576>
    2eda:	07 ff       	sbrs	r16, 7
    2edc:	0b c0       	rjmp	.+22     	; 0x2ef4 <vfprintf+0x538>
    2ede:	9a 01       	movw	r18, r20
    2ee0:	2c 5f       	subi	r18, 0xFC	; 252
    2ee2:	3f 4f       	sbci	r19, 0xFF	; 255
    2ee4:	3d 87       	std	Y+13, r19	; 0x0d
    2ee6:	2c 87       	std	Y+12, r18	; 0x0c
    2ee8:	fa 01       	movw	r30, r20
    2eea:	60 81       	ld	r22, Z
    2eec:	71 81       	ldd	r23, Z+1	; 0x01
    2eee:	82 81       	ldd	r24, Z+2	; 0x02
    2ef0:	93 81       	ldd	r25, Z+3	; 0x03
    2ef2:	0c c0       	rjmp	.+24     	; 0x2f0c <vfprintf+0x550>
    2ef4:	9a 01       	movw	r18, r20
    2ef6:	2e 5f       	subi	r18, 0xFE	; 254
    2ef8:	3f 4f       	sbci	r19, 0xFF	; 255
    2efa:	3d 87       	std	Y+13, r19	; 0x0d
    2efc:	2c 87       	std	Y+12, r18	; 0x0c
    2efe:	fa 01       	movw	r30, r20
    2f00:	60 81       	ld	r22, Z
    2f02:	71 81       	ldd	r23, Z+1	; 0x01
    2f04:	88 27       	eor	r24, r24
    2f06:	77 fd       	sbrc	r23, 7
    2f08:	80 95       	com	r24
    2f0a:	98 2f       	mov	r25, r24
    2f0c:	0f 76       	andi	r16, 0x6F	; 111
    2f0e:	97 ff       	sbrs	r25, 7
    2f10:	08 c0       	rjmp	.+16     	; 0x2f22 <vfprintf+0x566>
    2f12:	90 95       	com	r25
    2f14:	80 95       	com	r24
    2f16:	70 95       	com	r23
    2f18:	61 95       	neg	r22
    2f1a:	7f 4f       	sbci	r23, 0xFF	; 255
    2f1c:	8f 4f       	sbci	r24, 0xFF	; 255
    2f1e:	9f 4f       	sbci	r25, 0xFF	; 255
    2f20:	00 68       	ori	r16, 0x80	; 128
    2f22:	a1 01       	movw	r20, r2
    2f24:	2a e0       	ldi	r18, 0x0A	; 10
    2f26:	30 e0       	ldi	r19, 0x00	; 0
    2f28:	0e 94 26 1c 	call	0x384c	; 0x384c <__ultoa_invert>
    2f2c:	98 2e       	mov	r9, r24
    2f2e:	92 18       	sub	r9, r2
    2f30:	41 c0       	rjmp	.+130    	; 0x2fb4 <vfprintf+0x5f8>
    2f32:	85 37       	cpi	r24, 0x75	; 117
    2f34:	21 f4       	brne	.+8      	; 0x2f3e <vfprintf+0x582>
    2f36:	0f 7e       	andi	r16, 0xEF	; 239
    2f38:	2a e0       	ldi	r18, 0x0A	; 10
    2f3a:	30 e0       	ldi	r19, 0x00	; 0
    2f3c:	20 c0       	rjmp	.+64     	; 0x2f7e <vfprintf+0x5c2>
    2f3e:	09 7f       	andi	r16, 0xF9	; 249
    2f40:	8f 36       	cpi	r24, 0x6F	; 111
    2f42:	a9 f0       	breq	.+42     	; 0x2f6e <vfprintf+0x5b2>
    2f44:	80 37       	cpi	r24, 0x70	; 112
    2f46:	20 f4       	brcc	.+8      	; 0x2f50 <vfprintf+0x594>
    2f48:	88 35       	cpi	r24, 0x58	; 88
    2f4a:	09 f0       	breq	.+2      	; 0x2f4e <vfprintf+0x592>
    2f4c:	b2 c0       	rjmp	.+356    	; 0x30b2 <vfprintf+0x6f6>
    2f4e:	0b c0       	rjmp	.+22     	; 0x2f66 <vfprintf+0x5aa>
    2f50:	80 37       	cpi	r24, 0x70	; 112
    2f52:	21 f0       	breq	.+8      	; 0x2f5c <vfprintf+0x5a0>
    2f54:	88 37       	cpi	r24, 0x78	; 120
    2f56:	09 f0       	breq	.+2      	; 0x2f5a <vfprintf+0x59e>
    2f58:	ac c0       	rjmp	.+344    	; 0x30b2 <vfprintf+0x6f6>
    2f5a:	01 c0       	rjmp	.+2      	; 0x2f5e <vfprintf+0x5a2>
    2f5c:	00 61       	ori	r16, 0x10	; 16
    2f5e:	04 ff       	sbrs	r16, 4
    2f60:	09 c0       	rjmp	.+18     	; 0x2f74 <vfprintf+0x5b8>
    2f62:	04 60       	ori	r16, 0x04	; 4
    2f64:	07 c0       	rjmp	.+14     	; 0x2f74 <vfprintf+0x5b8>
    2f66:	04 ff       	sbrs	r16, 4
    2f68:	08 c0       	rjmp	.+16     	; 0x2f7a <vfprintf+0x5be>
    2f6a:	06 60       	ori	r16, 0x06	; 6
    2f6c:	06 c0       	rjmp	.+12     	; 0x2f7a <vfprintf+0x5be>
    2f6e:	28 e0       	ldi	r18, 0x08	; 8
    2f70:	30 e0       	ldi	r19, 0x00	; 0
    2f72:	05 c0       	rjmp	.+10     	; 0x2f7e <vfprintf+0x5c2>
    2f74:	20 e1       	ldi	r18, 0x10	; 16
    2f76:	30 e0       	ldi	r19, 0x00	; 0
    2f78:	02 c0       	rjmp	.+4      	; 0x2f7e <vfprintf+0x5c2>
    2f7a:	20 e1       	ldi	r18, 0x10	; 16
    2f7c:	32 e0       	ldi	r19, 0x02	; 2
    2f7e:	07 ff       	sbrs	r16, 7
    2f80:	0a c0       	rjmp	.+20     	; 0x2f96 <vfprintf+0x5da>
    2f82:	ca 01       	movw	r24, r20
    2f84:	04 96       	adiw	r24, 0x04	; 4
    2f86:	9d 87       	std	Y+13, r25	; 0x0d
    2f88:	8c 87       	std	Y+12, r24	; 0x0c
    2f8a:	fa 01       	movw	r30, r20
    2f8c:	60 81       	ld	r22, Z
    2f8e:	71 81       	ldd	r23, Z+1	; 0x01
    2f90:	82 81       	ldd	r24, Z+2	; 0x02
    2f92:	93 81       	ldd	r25, Z+3	; 0x03
    2f94:	09 c0       	rjmp	.+18     	; 0x2fa8 <vfprintf+0x5ec>
    2f96:	ca 01       	movw	r24, r20
    2f98:	02 96       	adiw	r24, 0x02	; 2
    2f9a:	9d 87       	std	Y+13, r25	; 0x0d
    2f9c:	8c 87       	std	Y+12, r24	; 0x0c
    2f9e:	fa 01       	movw	r30, r20
    2fa0:	60 81       	ld	r22, Z
    2fa2:	71 81       	ldd	r23, Z+1	; 0x01
    2fa4:	80 e0       	ldi	r24, 0x00	; 0
    2fa6:	90 e0       	ldi	r25, 0x00	; 0
    2fa8:	a1 01       	movw	r20, r2
    2faa:	0e 94 26 1c 	call	0x384c	; 0x384c <__ultoa_invert>
    2fae:	98 2e       	mov	r9, r24
    2fb0:	92 18       	sub	r9, r2
    2fb2:	0f 77       	andi	r16, 0x7F	; 127
    2fb4:	06 ff       	sbrs	r16, 6
    2fb6:	09 c0       	rjmp	.+18     	; 0x2fca <vfprintf+0x60e>
    2fb8:	0e 7f       	andi	r16, 0xFE	; 254
    2fba:	91 16       	cp	r9, r17
    2fbc:	30 f4       	brcc	.+12     	; 0x2fca <vfprintf+0x60e>
    2fbe:	04 ff       	sbrs	r16, 4
    2fc0:	06 c0       	rjmp	.+12     	; 0x2fce <vfprintf+0x612>
    2fc2:	02 fd       	sbrc	r16, 2
    2fc4:	04 c0       	rjmp	.+8      	; 0x2fce <vfprintf+0x612>
    2fc6:	0f 7e       	andi	r16, 0xEF	; 239
    2fc8:	02 c0       	rjmp	.+4      	; 0x2fce <vfprintf+0x612>
    2fca:	e9 2c       	mov	r14, r9
    2fcc:	01 c0       	rjmp	.+2      	; 0x2fd0 <vfprintf+0x614>
    2fce:	e1 2e       	mov	r14, r17
    2fd0:	80 2f       	mov	r24, r16
    2fd2:	90 e0       	ldi	r25, 0x00	; 0
    2fd4:	04 ff       	sbrs	r16, 4
    2fd6:	0c c0       	rjmp	.+24     	; 0x2ff0 <vfprintf+0x634>
    2fd8:	fe 01       	movw	r30, r28
    2fda:	e9 0d       	add	r30, r9
    2fdc:	f1 1d       	adc	r31, r1
    2fde:	20 81       	ld	r18, Z
    2fe0:	20 33       	cpi	r18, 0x30	; 48
    2fe2:	11 f4       	brne	.+4      	; 0x2fe8 <vfprintf+0x62c>
    2fe4:	09 7e       	andi	r16, 0xE9	; 233
    2fe6:	09 c0       	rjmp	.+18     	; 0x2ffa <vfprintf+0x63e>
    2fe8:	e3 94       	inc	r14
    2fea:	02 ff       	sbrs	r16, 2
    2fec:	06 c0       	rjmp	.+12     	; 0x2ffa <vfprintf+0x63e>
    2fee:	04 c0       	rjmp	.+8      	; 0x2ff8 <vfprintf+0x63c>
    2ff0:	86 78       	andi	r24, 0x86	; 134
    2ff2:	90 70       	andi	r25, 0x00	; 0
    2ff4:	00 97       	sbiw	r24, 0x00	; 0
    2ff6:	09 f0       	breq	.+2      	; 0x2ffa <vfprintf+0x63e>
    2ff8:	e3 94       	inc	r14
    2ffa:	a0 2e       	mov	r10, r16
    2ffc:	bb 24       	eor	r11, r11
    2ffe:	03 fd       	sbrc	r16, 3
    3000:	14 c0       	rjmp	.+40     	; 0x302a <vfprintf+0x66e>
    3002:	00 ff       	sbrs	r16, 0
    3004:	0f c0       	rjmp	.+30     	; 0x3024 <vfprintf+0x668>
    3006:	ef 14       	cp	r14, r15
    3008:	28 f4       	brcc	.+10     	; 0x3014 <vfprintf+0x658>
    300a:	19 2d       	mov	r17, r9
    300c:	1f 0d       	add	r17, r15
    300e:	1e 19       	sub	r17, r14
    3010:	ef 2c       	mov	r14, r15
    3012:	08 c0       	rjmp	.+16     	; 0x3024 <vfprintf+0x668>
    3014:	19 2d       	mov	r17, r9
    3016:	06 c0       	rjmp	.+12     	; 0x3024 <vfprintf+0x668>
    3018:	80 e2       	ldi	r24, 0x20	; 32
    301a:	90 e0       	ldi	r25, 0x00	; 0
    301c:	b6 01       	movw	r22, r12
    301e:	0e 94 d7 1b 	call	0x37ae	; 0x37ae <fputc>
    3022:	e3 94       	inc	r14
    3024:	ef 14       	cp	r14, r15
    3026:	c0 f3       	brcs	.-16     	; 0x3018 <vfprintf+0x65c>
    3028:	04 c0       	rjmp	.+8      	; 0x3032 <vfprintf+0x676>
    302a:	ef 14       	cp	r14, r15
    302c:	10 f4       	brcc	.+4      	; 0x3032 <vfprintf+0x676>
    302e:	fe 18       	sub	r15, r14
    3030:	01 c0       	rjmp	.+2      	; 0x3034 <vfprintf+0x678>
    3032:	ff 24       	eor	r15, r15
    3034:	a4 fe       	sbrs	r10, 4
    3036:	0f c0       	rjmp	.+30     	; 0x3056 <vfprintf+0x69a>
    3038:	80 e3       	ldi	r24, 0x30	; 48
    303a:	90 e0       	ldi	r25, 0x00	; 0
    303c:	b6 01       	movw	r22, r12
    303e:	0e 94 d7 1b 	call	0x37ae	; 0x37ae <fputc>
    3042:	a2 fe       	sbrs	r10, 2
    3044:	1f c0       	rjmp	.+62     	; 0x3084 <vfprintf+0x6c8>
    3046:	a1 fe       	sbrs	r10, 1
    3048:	03 c0       	rjmp	.+6      	; 0x3050 <vfprintf+0x694>
    304a:	88 e5       	ldi	r24, 0x58	; 88
    304c:	90 e0       	ldi	r25, 0x00	; 0
    304e:	10 c0       	rjmp	.+32     	; 0x3070 <vfprintf+0x6b4>
    3050:	88 e7       	ldi	r24, 0x78	; 120
    3052:	90 e0       	ldi	r25, 0x00	; 0
    3054:	0d c0       	rjmp	.+26     	; 0x3070 <vfprintf+0x6b4>
    3056:	c5 01       	movw	r24, r10
    3058:	86 78       	andi	r24, 0x86	; 134
    305a:	90 70       	andi	r25, 0x00	; 0
    305c:	00 97       	sbiw	r24, 0x00	; 0
    305e:	91 f0       	breq	.+36     	; 0x3084 <vfprintf+0x6c8>
    3060:	a1 fc       	sbrc	r10, 1
    3062:	02 c0       	rjmp	.+4      	; 0x3068 <vfprintf+0x6ac>
    3064:	80 e2       	ldi	r24, 0x20	; 32
    3066:	01 c0       	rjmp	.+2      	; 0x306a <vfprintf+0x6ae>
    3068:	8b e2       	ldi	r24, 0x2B	; 43
    306a:	07 fd       	sbrc	r16, 7
    306c:	8d e2       	ldi	r24, 0x2D	; 45
    306e:	90 e0       	ldi	r25, 0x00	; 0
    3070:	b6 01       	movw	r22, r12
    3072:	0e 94 d7 1b 	call	0x37ae	; 0x37ae <fputc>
    3076:	06 c0       	rjmp	.+12     	; 0x3084 <vfprintf+0x6c8>
    3078:	80 e3       	ldi	r24, 0x30	; 48
    307a:	90 e0       	ldi	r25, 0x00	; 0
    307c:	b6 01       	movw	r22, r12
    307e:	0e 94 d7 1b 	call	0x37ae	; 0x37ae <fputc>
    3082:	11 50       	subi	r17, 0x01	; 1
    3084:	91 16       	cp	r9, r17
    3086:	c0 f3       	brcs	.-16     	; 0x3078 <vfprintf+0x6bc>
    3088:	9a 94       	dec	r9
    308a:	f1 01       	movw	r30, r2
    308c:	e9 0d       	add	r30, r9
    308e:	f1 1d       	adc	r31, r1
    3090:	80 81       	ld	r24, Z
    3092:	90 e0       	ldi	r25, 0x00	; 0
    3094:	b6 01       	movw	r22, r12
    3096:	0e 94 d7 1b 	call	0x37ae	; 0x37ae <fputc>
    309a:	99 20       	and	r9, r9
    309c:	a9 f7       	brne	.-22     	; 0x3088 <vfprintf+0x6cc>
    309e:	06 c0       	rjmp	.+12     	; 0x30ac <vfprintf+0x6f0>
    30a0:	80 e2       	ldi	r24, 0x20	; 32
    30a2:	90 e0       	ldi	r25, 0x00	; 0
    30a4:	b6 01       	movw	r22, r12
    30a6:	0e 94 d7 1b 	call	0x37ae	; 0x37ae <fputc>
    30aa:	fa 94       	dec	r15
    30ac:	ff 20       	and	r15, r15
    30ae:	c1 f7       	brne	.-16     	; 0x30a0 <vfprintf+0x6e4>
    30b0:	95 cc       	rjmp	.-1750   	; 0x29dc <vfprintf+0x20>
    30b2:	f6 01       	movw	r30, r12
    30b4:	26 81       	ldd	r18, Z+6	; 0x06
    30b6:	37 81       	ldd	r19, Z+7	; 0x07
    30b8:	02 c0       	rjmp	.+4      	; 0x30be <vfprintf+0x702>
    30ba:	2f ef       	ldi	r18, 0xFF	; 255
    30bc:	3f ef       	ldi	r19, 0xFF	; 255
    30be:	c9 01       	movw	r24, r18
    30c0:	63 96       	adiw	r28, 0x13	; 19
    30c2:	e2 e1       	ldi	r30, 0x12	; 18
    30c4:	0c 94 ba 1a 	jmp	0x3574	; 0x3574 <__epilogue_restores__>

000030c8 <__subsf3>:
    30c8:	50 58       	subi	r21, 0x80	; 128

000030ca <__addsf3>:
    30ca:	bb 27       	eor	r27, r27
    30cc:	aa 27       	eor	r26, r26
    30ce:	0e d0       	rcall	.+28     	; 0x30ec <__addsf3x>
    30d0:	75 c1       	rjmp	.+746    	; 0x33bc <__fp_round>
    30d2:	66 d1       	rcall	.+716    	; 0x33a0 <__fp_pscA>
    30d4:	30 f0       	brcs	.+12     	; 0x30e2 <__addsf3+0x18>
    30d6:	6b d1       	rcall	.+726    	; 0x33ae <__fp_pscB>
    30d8:	20 f0       	brcs	.+8      	; 0x30e2 <__addsf3+0x18>
    30da:	31 f4       	brne	.+12     	; 0x30e8 <__addsf3+0x1e>
    30dc:	9f 3f       	cpi	r25, 0xFF	; 255
    30de:	11 f4       	brne	.+4      	; 0x30e4 <__addsf3+0x1a>
    30e0:	1e f4       	brtc	.+6      	; 0x30e8 <__addsf3+0x1e>
    30e2:	5b c1       	rjmp	.+694    	; 0x339a <__fp_nan>
    30e4:	0e f4       	brtc	.+2      	; 0x30e8 <__addsf3+0x1e>
    30e6:	e0 95       	com	r30
    30e8:	e7 fb       	bst	r30, 7
    30ea:	51 c1       	rjmp	.+674    	; 0x338e <__fp_inf>

000030ec <__addsf3x>:
    30ec:	e9 2f       	mov	r30, r25
    30ee:	77 d1       	rcall	.+750    	; 0x33de <__fp_split3>
    30f0:	80 f3       	brcs	.-32     	; 0x30d2 <__addsf3+0x8>
    30f2:	ba 17       	cp	r27, r26
    30f4:	62 07       	cpc	r22, r18
    30f6:	73 07       	cpc	r23, r19
    30f8:	84 07       	cpc	r24, r20
    30fa:	95 07       	cpc	r25, r21
    30fc:	18 f0       	brcs	.+6      	; 0x3104 <__addsf3x+0x18>
    30fe:	71 f4       	brne	.+28     	; 0x311c <__addsf3x+0x30>
    3100:	9e f5       	brtc	.+102    	; 0x3168 <__addsf3x+0x7c>
    3102:	8f c1       	rjmp	.+798    	; 0x3422 <__fp_zero>
    3104:	0e f4       	brtc	.+2      	; 0x3108 <__addsf3x+0x1c>
    3106:	e0 95       	com	r30
    3108:	0b 2e       	mov	r0, r27
    310a:	ba 2f       	mov	r27, r26
    310c:	a0 2d       	mov	r26, r0
    310e:	0b 01       	movw	r0, r22
    3110:	b9 01       	movw	r22, r18
    3112:	90 01       	movw	r18, r0
    3114:	0c 01       	movw	r0, r24
    3116:	ca 01       	movw	r24, r20
    3118:	a0 01       	movw	r20, r0
    311a:	11 24       	eor	r1, r1
    311c:	ff 27       	eor	r31, r31
    311e:	59 1b       	sub	r21, r25
    3120:	99 f0       	breq	.+38     	; 0x3148 <__addsf3x+0x5c>
    3122:	59 3f       	cpi	r21, 0xF9	; 249
    3124:	50 f4       	brcc	.+20     	; 0x313a <__addsf3x+0x4e>
    3126:	50 3e       	cpi	r21, 0xE0	; 224
    3128:	68 f1       	brcs	.+90     	; 0x3184 <__addsf3x+0x98>
    312a:	1a 16       	cp	r1, r26
    312c:	f0 40       	sbci	r31, 0x00	; 0
    312e:	a2 2f       	mov	r26, r18
    3130:	23 2f       	mov	r18, r19
    3132:	34 2f       	mov	r19, r20
    3134:	44 27       	eor	r20, r20
    3136:	58 5f       	subi	r21, 0xF8	; 248
    3138:	f3 cf       	rjmp	.-26     	; 0x3120 <__addsf3x+0x34>
    313a:	46 95       	lsr	r20
    313c:	37 95       	ror	r19
    313e:	27 95       	ror	r18
    3140:	a7 95       	ror	r26
    3142:	f0 40       	sbci	r31, 0x00	; 0
    3144:	53 95       	inc	r21
    3146:	c9 f7       	brne	.-14     	; 0x313a <__addsf3x+0x4e>
    3148:	7e f4       	brtc	.+30     	; 0x3168 <__addsf3x+0x7c>
    314a:	1f 16       	cp	r1, r31
    314c:	ba 0b       	sbc	r27, r26
    314e:	62 0b       	sbc	r22, r18
    3150:	73 0b       	sbc	r23, r19
    3152:	84 0b       	sbc	r24, r20
    3154:	ba f0       	brmi	.+46     	; 0x3184 <__addsf3x+0x98>
    3156:	91 50       	subi	r25, 0x01	; 1
    3158:	a1 f0       	breq	.+40     	; 0x3182 <__addsf3x+0x96>
    315a:	ff 0f       	add	r31, r31
    315c:	bb 1f       	adc	r27, r27
    315e:	66 1f       	adc	r22, r22
    3160:	77 1f       	adc	r23, r23
    3162:	88 1f       	adc	r24, r24
    3164:	c2 f7       	brpl	.-16     	; 0x3156 <__addsf3x+0x6a>
    3166:	0e c0       	rjmp	.+28     	; 0x3184 <__addsf3x+0x98>
    3168:	ba 0f       	add	r27, r26
    316a:	62 1f       	adc	r22, r18
    316c:	73 1f       	adc	r23, r19
    316e:	84 1f       	adc	r24, r20
    3170:	48 f4       	brcc	.+18     	; 0x3184 <__addsf3x+0x98>
    3172:	87 95       	ror	r24
    3174:	77 95       	ror	r23
    3176:	67 95       	ror	r22
    3178:	b7 95       	ror	r27
    317a:	f7 95       	ror	r31
    317c:	9e 3f       	cpi	r25, 0xFE	; 254
    317e:	08 f0       	brcs	.+2      	; 0x3182 <__addsf3x+0x96>
    3180:	b3 cf       	rjmp	.-154    	; 0x30e8 <__addsf3+0x1e>
    3182:	93 95       	inc	r25
    3184:	88 0f       	add	r24, r24
    3186:	08 f0       	brcs	.+2      	; 0x318a <__addsf3x+0x9e>
    3188:	99 27       	eor	r25, r25
    318a:	ee 0f       	add	r30, r30
    318c:	97 95       	ror	r25
    318e:	87 95       	ror	r24
    3190:	08 95       	ret

00003192 <__cmpsf2>:
    3192:	d9 d0       	rcall	.+434    	; 0x3346 <__fp_cmp>
    3194:	08 f4       	brcc	.+2      	; 0x3198 <__cmpsf2+0x6>
    3196:	81 e0       	ldi	r24, 0x01	; 1
    3198:	08 95       	ret

0000319a <__divsf3>:
    319a:	0c d0       	rcall	.+24     	; 0x31b4 <__divsf3x>
    319c:	0f c1       	rjmp	.+542    	; 0x33bc <__fp_round>
    319e:	07 d1       	rcall	.+526    	; 0x33ae <__fp_pscB>
    31a0:	40 f0       	brcs	.+16     	; 0x31b2 <__divsf3+0x18>
    31a2:	fe d0       	rcall	.+508    	; 0x33a0 <__fp_pscA>
    31a4:	30 f0       	brcs	.+12     	; 0x31b2 <__divsf3+0x18>
    31a6:	21 f4       	brne	.+8      	; 0x31b0 <__divsf3+0x16>
    31a8:	5f 3f       	cpi	r21, 0xFF	; 255
    31aa:	19 f0       	breq	.+6      	; 0x31b2 <__divsf3+0x18>
    31ac:	f0 c0       	rjmp	.+480    	; 0x338e <__fp_inf>
    31ae:	51 11       	cpse	r21, r1
    31b0:	39 c1       	rjmp	.+626    	; 0x3424 <__fp_szero>
    31b2:	f3 c0       	rjmp	.+486    	; 0x339a <__fp_nan>

000031b4 <__divsf3x>:
    31b4:	14 d1       	rcall	.+552    	; 0x33de <__fp_split3>
    31b6:	98 f3       	brcs	.-26     	; 0x319e <__divsf3+0x4>

000031b8 <__divsf3_pse>:
    31b8:	99 23       	and	r25, r25
    31ba:	c9 f3       	breq	.-14     	; 0x31ae <__divsf3+0x14>
    31bc:	55 23       	and	r21, r21
    31be:	b1 f3       	breq	.-20     	; 0x31ac <__divsf3+0x12>
    31c0:	95 1b       	sub	r25, r21
    31c2:	55 0b       	sbc	r21, r21
    31c4:	bb 27       	eor	r27, r27
    31c6:	aa 27       	eor	r26, r26
    31c8:	62 17       	cp	r22, r18
    31ca:	73 07       	cpc	r23, r19
    31cc:	84 07       	cpc	r24, r20
    31ce:	38 f0       	brcs	.+14     	; 0x31de <__divsf3_pse+0x26>
    31d0:	9f 5f       	subi	r25, 0xFF	; 255
    31d2:	5f 4f       	sbci	r21, 0xFF	; 255
    31d4:	22 0f       	add	r18, r18
    31d6:	33 1f       	adc	r19, r19
    31d8:	44 1f       	adc	r20, r20
    31da:	aa 1f       	adc	r26, r26
    31dc:	a9 f3       	breq	.-22     	; 0x31c8 <__divsf3_pse+0x10>
    31de:	33 d0       	rcall	.+102    	; 0x3246 <__divsf3_pse+0x8e>
    31e0:	0e 2e       	mov	r0, r30
    31e2:	3a f0       	brmi	.+14     	; 0x31f2 <__divsf3_pse+0x3a>
    31e4:	e0 e8       	ldi	r30, 0x80	; 128
    31e6:	30 d0       	rcall	.+96     	; 0x3248 <__divsf3_pse+0x90>
    31e8:	91 50       	subi	r25, 0x01	; 1
    31ea:	50 40       	sbci	r21, 0x00	; 0
    31ec:	e6 95       	lsr	r30
    31ee:	00 1c       	adc	r0, r0
    31f0:	ca f7       	brpl	.-14     	; 0x31e4 <__divsf3_pse+0x2c>
    31f2:	29 d0       	rcall	.+82     	; 0x3246 <__divsf3_pse+0x8e>
    31f4:	fe 2f       	mov	r31, r30
    31f6:	27 d0       	rcall	.+78     	; 0x3246 <__divsf3_pse+0x8e>
    31f8:	66 0f       	add	r22, r22
    31fa:	77 1f       	adc	r23, r23
    31fc:	88 1f       	adc	r24, r24
    31fe:	bb 1f       	adc	r27, r27
    3200:	26 17       	cp	r18, r22
    3202:	37 07       	cpc	r19, r23
    3204:	48 07       	cpc	r20, r24
    3206:	ab 07       	cpc	r26, r27
    3208:	b0 e8       	ldi	r27, 0x80	; 128
    320a:	09 f0       	breq	.+2      	; 0x320e <__divsf3_pse+0x56>
    320c:	bb 0b       	sbc	r27, r27
    320e:	80 2d       	mov	r24, r0
    3210:	bf 01       	movw	r22, r30
    3212:	ff 27       	eor	r31, r31
    3214:	93 58       	subi	r25, 0x83	; 131
    3216:	5f 4f       	sbci	r21, 0xFF	; 255
    3218:	2a f0       	brmi	.+10     	; 0x3224 <__divsf3_pse+0x6c>
    321a:	9e 3f       	cpi	r25, 0xFE	; 254
    321c:	51 05       	cpc	r21, r1
    321e:	68 f0       	brcs	.+26     	; 0x323a <__divsf3_pse+0x82>
    3220:	b6 c0       	rjmp	.+364    	; 0x338e <__fp_inf>
    3222:	00 c1       	rjmp	.+512    	; 0x3424 <__fp_szero>
    3224:	5f 3f       	cpi	r21, 0xFF	; 255
    3226:	ec f3       	brlt	.-6      	; 0x3222 <__divsf3_pse+0x6a>
    3228:	98 3e       	cpi	r25, 0xE8	; 232
    322a:	dc f3       	brlt	.-10     	; 0x3222 <__divsf3_pse+0x6a>
    322c:	86 95       	lsr	r24
    322e:	77 95       	ror	r23
    3230:	67 95       	ror	r22
    3232:	b7 95       	ror	r27
    3234:	f7 95       	ror	r31
    3236:	9f 5f       	subi	r25, 0xFF	; 255
    3238:	c9 f7       	brne	.-14     	; 0x322c <__divsf3_pse+0x74>
    323a:	88 0f       	add	r24, r24
    323c:	91 1d       	adc	r25, r1
    323e:	96 95       	lsr	r25
    3240:	87 95       	ror	r24
    3242:	97 f9       	bld	r25, 7
    3244:	08 95       	ret
    3246:	e1 e0       	ldi	r30, 0x01	; 1
    3248:	66 0f       	add	r22, r22
    324a:	77 1f       	adc	r23, r23
    324c:	88 1f       	adc	r24, r24
    324e:	bb 1f       	adc	r27, r27
    3250:	62 17       	cp	r22, r18
    3252:	73 07       	cpc	r23, r19
    3254:	84 07       	cpc	r24, r20
    3256:	ba 07       	cpc	r27, r26
    3258:	20 f0       	brcs	.+8      	; 0x3262 <__divsf3_pse+0xaa>
    325a:	62 1b       	sub	r22, r18
    325c:	73 0b       	sbc	r23, r19
    325e:	84 0b       	sbc	r24, r20
    3260:	ba 0b       	sbc	r27, r26
    3262:	ee 1f       	adc	r30, r30
    3264:	88 f7       	brcc	.-30     	; 0x3248 <__divsf3_pse+0x90>
    3266:	e0 95       	com	r30
    3268:	08 95       	ret

0000326a <__fixsfsi>:
    326a:	04 d0       	rcall	.+8      	; 0x3274 <__fixunssfsi>
    326c:	68 94       	set
    326e:	b1 11       	cpse	r27, r1
    3270:	d9 c0       	rjmp	.+434    	; 0x3424 <__fp_szero>
    3272:	08 95       	ret

00003274 <__fixunssfsi>:
    3274:	bc d0       	rcall	.+376    	; 0x33ee <__fp_splitA>
    3276:	88 f0       	brcs	.+34     	; 0x329a <__fixunssfsi+0x26>
    3278:	9f 57       	subi	r25, 0x7F	; 127
    327a:	90 f0       	brcs	.+36     	; 0x32a0 <__fixunssfsi+0x2c>
    327c:	b9 2f       	mov	r27, r25
    327e:	99 27       	eor	r25, r25
    3280:	b7 51       	subi	r27, 0x17	; 23
    3282:	a0 f0       	brcs	.+40     	; 0x32ac <__fixunssfsi+0x38>
    3284:	d1 f0       	breq	.+52     	; 0x32ba <__fixunssfsi+0x46>
    3286:	66 0f       	add	r22, r22
    3288:	77 1f       	adc	r23, r23
    328a:	88 1f       	adc	r24, r24
    328c:	99 1f       	adc	r25, r25
    328e:	1a f0       	brmi	.+6      	; 0x3296 <__fixunssfsi+0x22>
    3290:	ba 95       	dec	r27
    3292:	c9 f7       	brne	.-14     	; 0x3286 <__fixunssfsi+0x12>
    3294:	12 c0       	rjmp	.+36     	; 0x32ba <__fixunssfsi+0x46>
    3296:	b1 30       	cpi	r27, 0x01	; 1
    3298:	81 f0       	breq	.+32     	; 0x32ba <__fixunssfsi+0x46>
    329a:	c3 d0       	rcall	.+390    	; 0x3422 <__fp_zero>
    329c:	b1 e0       	ldi	r27, 0x01	; 1
    329e:	08 95       	ret
    32a0:	c0 c0       	rjmp	.+384    	; 0x3422 <__fp_zero>
    32a2:	67 2f       	mov	r22, r23
    32a4:	78 2f       	mov	r23, r24
    32a6:	88 27       	eor	r24, r24
    32a8:	b8 5f       	subi	r27, 0xF8	; 248
    32aa:	39 f0       	breq	.+14     	; 0x32ba <__fixunssfsi+0x46>
    32ac:	b9 3f       	cpi	r27, 0xF9	; 249
    32ae:	cc f3       	brlt	.-14     	; 0x32a2 <__fixunssfsi+0x2e>
    32b0:	86 95       	lsr	r24
    32b2:	77 95       	ror	r23
    32b4:	67 95       	ror	r22
    32b6:	b3 95       	inc	r27
    32b8:	d9 f7       	brne	.-10     	; 0x32b0 <__fixunssfsi+0x3c>
    32ba:	3e f4       	brtc	.+14     	; 0x32ca <__fixunssfsi+0x56>
    32bc:	90 95       	com	r25
    32be:	80 95       	com	r24
    32c0:	70 95       	com	r23
    32c2:	61 95       	neg	r22
    32c4:	7f 4f       	sbci	r23, 0xFF	; 255
    32c6:	8f 4f       	sbci	r24, 0xFF	; 255
    32c8:	9f 4f       	sbci	r25, 0xFF	; 255
    32ca:	08 95       	ret

000032cc <__floatunsisf>:
    32cc:	e8 94       	clt
    32ce:	09 c0       	rjmp	.+18     	; 0x32e2 <__floatsisf+0x12>

000032d0 <__floatsisf>:
    32d0:	97 fb       	bst	r25, 7
    32d2:	3e f4       	brtc	.+14     	; 0x32e2 <__floatsisf+0x12>
    32d4:	90 95       	com	r25
    32d6:	80 95       	com	r24
    32d8:	70 95       	com	r23
    32da:	61 95       	neg	r22
    32dc:	7f 4f       	sbci	r23, 0xFF	; 255
    32de:	8f 4f       	sbci	r24, 0xFF	; 255
    32e0:	9f 4f       	sbci	r25, 0xFF	; 255
    32e2:	99 23       	and	r25, r25
    32e4:	a9 f0       	breq	.+42     	; 0x3310 <__floatsisf+0x40>
    32e6:	f9 2f       	mov	r31, r25
    32e8:	96 e9       	ldi	r25, 0x96	; 150
    32ea:	bb 27       	eor	r27, r27
    32ec:	93 95       	inc	r25
    32ee:	f6 95       	lsr	r31
    32f0:	87 95       	ror	r24
    32f2:	77 95       	ror	r23
    32f4:	67 95       	ror	r22
    32f6:	b7 95       	ror	r27
    32f8:	f1 11       	cpse	r31, r1
    32fa:	f8 cf       	rjmp	.-16     	; 0x32ec <__floatsisf+0x1c>
    32fc:	fa f4       	brpl	.+62     	; 0x333c <__floatsisf+0x6c>
    32fe:	bb 0f       	add	r27, r27
    3300:	11 f4       	brne	.+4      	; 0x3306 <__floatsisf+0x36>
    3302:	60 ff       	sbrs	r22, 0
    3304:	1b c0       	rjmp	.+54     	; 0x333c <__floatsisf+0x6c>
    3306:	6f 5f       	subi	r22, 0xFF	; 255
    3308:	7f 4f       	sbci	r23, 0xFF	; 255
    330a:	8f 4f       	sbci	r24, 0xFF	; 255
    330c:	9f 4f       	sbci	r25, 0xFF	; 255
    330e:	16 c0       	rjmp	.+44     	; 0x333c <__floatsisf+0x6c>
    3310:	88 23       	and	r24, r24
    3312:	11 f0       	breq	.+4      	; 0x3318 <__floatsisf+0x48>
    3314:	96 e9       	ldi	r25, 0x96	; 150
    3316:	11 c0       	rjmp	.+34     	; 0x333a <__floatsisf+0x6a>
    3318:	77 23       	and	r23, r23
    331a:	21 f0       	breq	.+8      	; 0x3324 <__floatsisf+0x54>
    331c:	9e e8       	ldi	r25, 0x8E	; 142
    331e:	87 2f       	mov	r24, r23
    3320:	76 2f       	mov	r23, r22
    3322:	05 c0       	rjmp	.+10     	; 0x332e <__floatsisf+0x5e>
    3324:	66 23       	and	r22, r22
    3326:	71 f0       	breq	.+28     	; 0x3344 <__floatsisf+0x74>
    3328:	96 e8       	ldi	r25, 0x86	; 134
    332a:	86 2f       	mov	r24, r22
    332c:	70 e0       	ldi	r23, 0x00	; 0
    332e:	60 e0       	ldi	r22, 0x00	; 0
    3330:	2a f0       	brmi	.+10     	; 0x333c <__floatsisf+0x6c>
    3332:	9a 95       	dec	r25
    3334:	66 0f       	add	r22, r22
    3336:	77 1f       	adc	r23, r23
    3338:	88 1f       	adc	r24, r24
    333a:	da f7       	brpl	.-10     	; 0x3332 <__floatsisf+0x62>
    333c:	88 0f       	add	r24, r24
    333e:	96 95       	lsr	r25
    3340:	87 95       	ror	r24
    3342:	97 f9       	bld	r25, 7
    3344:	08 95       	ret

00003346 <__fp_cmp>:
    3346:	99 0f       	add	r25, r25
    3348:	00 08       	sbc	r0, r0
    334a:	55 0f       	add	r21, r21
    334c:	aa 0b       	sbc	r26, r26
    334e:	e0 e8       	ldi	r30, 0x80	; 128
    3350:	fe ef       	ldi	r31, 0xFE	; 254
    3352:	16 16       	cp	r1, r22
    3354:	17 06       	cpc	r1, r23
    3356:	e8 07       	cpc	r30, r24
    3358:	f9 07       	cpc	r31, r25
    335a:	c0 f0       	brcs	.+48     	; 0x338c <__fp_cmp+0x46>
    335c:	12 16       	cp	r1, r18
    335e:	13 06       	cpc	r1, r19
    3360:	e4 07       	cpc	r30, r20
    3362:	f5 07       	cpc	r31, r21
    3364:	98 f0       	brcs	.+38     	; 0x338c <__fp_cmp+0x46>
    3366:	62 1b       	sub	r22, r18
    3368:	73 0b       	sbc	r23, r19
    336a:	84 0b       	sbc	r24, r20
    336c:	95 0b       	sbc	r25, r21
    336e:	39 f4       	brne	.+14     	; 0x337e <__fp_cmp+0x38>
    3370:	0a 26       	eor	r0, r26
    3372:	61 f0       	breq	.+24     	; 0x338c <__fp_cmp+0x46>
    3374:	23 2b       	or	r18, r19
    3376:	24 2b       	or	r18, r20
    3378:	25 2b       	or	r18, r21
    337a:	21 f4       	brne	.+8      	; 0x3384 <__fp_cmp+0x3e>
    337c:	08 95       	ret
    337e:	0a 26       	eor	r0, r26
    3380:	09 f4       	brne	.+2      	; 0x3384 <__fp_cmp+0x3e>
    3382:	a1 40       	sbci	r26, 0x01	; 1
    3384:	a6 95       	lsr	r26
    3386:	8f ef       	ldi	r24, 0xFF	; 255
    3388:	81 1d       	adc	r24, r1
    338a:	81 1d       	adc	r24, r1
    338c:	08 95       	ret

0000338e <__fp_inf>:
    338e:	97 f9       	bld	r25, 7
    3390:	9f 67       	ori	r25, 0x7F	; 127
    3392:	80 e8       	ldi	r24, 0x80	; 128
    3394:	70 e0       	ldi	r23, 0x00	; 0
    3396:	60 e0       	ldi	r22, 0x00	; 0
    3398:	08 95       	ret

0000339a <__fp_nan>:
    339a:	9f ef       	ldi	r25, 0xFF	; 255
    339c:	80 ec       	ldi	r24, 0xC0	; 192
    339e:	08 95       	ret

000033a0 <__fp_pscA>:
    33a0:	00 24       	eor	r0, r0
    33a2:	0a 94       	dec	r0
    33a4:	16 16       	cp	r1, r22
    33a6:	17 06       	cpc	r1, r23
    33a8:	18 06       	cpc	r1, r24
    33aa:	09 06       	cpc	r0, r25
    33ac:	08 95       	ret

000033ae <__fp_pscB>:
    33ae:	00 24       	eor	r0, r0
    33b0:	0a 94       	dec	r0
    33b2:	12 16       	cp	r1, r18
    33b4:	13 06       	cpc	r1, r19
    33b6:	14 06       	cpc	r1, r20
    33b8:	05 06       	cpc	r0, r21
    33ba:	08 95       	ret

000033bc <__fp_round>:
    33bc:	09 2e       	mov	r0, r25
    33be:	03 94       	inc	r0
    33c0:	00 0c       	add	r0, r0
    33c2:	11 f4       	brne	.+4      	; 0x33c8 <__fp_round+0xc>
    33c4:	88 23       	and	r24, r24
    33c6:	52 f0       	brmi	.+20     	; 0x33dc <__fp_round+0x20>
    33c8:	bb 0f       	add	r27, r27
    33ca:	40 f4       	brcc	.+16     	; 0x33dc <__fp_round+0x20>
    33cc:	bf 2b       	or	r27, r31
    33ce:	11 f4       	brne	.+4      	; 0x33d4 <__fp_round+0x18>
    33d0:	60 ff       	sbrs	r22, 0
    33d2:	04 c0       	rjmp	.+8      	; 0x33dc <__fp_round+0x20>
    33d4:	6f 5f       	subi	r22, 0xFF	; 255
    33d6:	7f 4f       	sbci	r23, 0xFF	; 255
    33d8:	8f 4f       	sbci	r24, 0xFF	; 255
    33da:	9f 4f       	sbci	r25, 0xFF	; 255
    33dc:	08 95       	ret

000033de <__fp_split3>:
    33de:	57 fd       	sbrc	r21, 7
    33e0:	90 58       	subi	r25, 0x80	; 128
    33e2:	44 0f       	add	r20, r20
    33e4:	55 1f       	adc	r21, r21
    33e6:	59 f0       	breq	.+22     	; 0x33fe <__fp_splitA+0x10>
    33e8:	5f 3f       	cpi	r21, 0xFF	; 255
    33ea:	71 f0       	breq	.+28     	; 0x3408 <__fp_splitA+0x1a>
    33ec:	47 95       	ror	r20

000033ee <__fp_splitA>:
    33ee:	88 0f       	add	r24, r24
    33f0:	97 fb       	bst	r25, 7
    33f2:	99 1f       	adc	r25, r25
    33f4:	61 f0       	breq	.+24     	; 0x340e <__fp_splitA+0x20>
    33f6:	9f 3f       	cpi	r25, 0xFF	; 255
    33f8:	79 f0       	breq	.+30     	; 0x3418 <__fp_splitA+0x2a>
    33fa:	87 95       	ror	r24
    33fc:	08 95       	ret
    33fe:	12 16       	cp	r1, r18
    3400:	13 06       	cpc	r1, r19
    3402:	14 06       	cpc	r1, r20
    3404:	55 1f       	adc	r21, r21
    3406:	f2 cf       	rjmp	.-28     	; 0x33ec <__fp_split3+0xe>
    3408:	46 95       	lsr	r20
    340a:	f1 df       	rcall	.-30     	; 0x33ee <__fp_splitA>
    340c:	08 c0       	rjmp	.+16     	; 0x341e <__fp_splitA+0x30>
    340e:	16 16       	cp	r1, r22
    3410:	17 06       	cpc	r1, r23
    3412:	18 06       	cpc	r1, r24
    3414:	99 1f       	adc	r25, r25
    3416:	f1 cf       	rjmp	.-30     	; 0x33fa <__fp_splitA+0xc>
    3418:	86 95       	lsr	r24
    341a:	71 05       	cpc	r23, r1
    341c:	61 05       	cpc	r22, r1
    341e:	08 94       	sec
    3420:	08 95       	ret

00003422 <__fp_zero>:
    3422:	e8 94       	clt

00003424 <__fp_szero>:
    3424:	bb 27       	eor	r27, r27
    3426:	66 27       	eor	r22, r22
    3428:	77 27       	eor	r23, r23
    342a:	cb 01       	movw	r24, r22
    342c:	97 f9       	bld	r25, 7
    342e:	08 95       	ret

00003430 <__gesf2>:
    3430:	8a df       	rcall	.-236    	; 0x3346 <__fp_cmp>
    3432:	08 f4       	brcc	.+2      	; 0x3436 <__gesf2+0x6>
    3434:	8f ef       	ldi	r24, 0xFF	; 255
    3436:	08 95       	ret

00003438 <__mulsf3>:
    3438:	0b d0       	rcall	.+22     	; 0x3450 <__mulsf3x>
    343a:	c0 cf       	rjmp	.-128    	; 0x33bc <__fp_round>
    343c:	b1 df       	rcall	.-158    	; 0x33a0 <__fp_pscA>
    343e:	28 f0       	brcs	.+10     	; 0x344a <__mulsf3+0x12>
    3440:	b6 df       	rcall	.-148    	; 0x33ae <__fp_pscB>
    3442:	18 f0       	brcs	.+6      	; 0x344a <__mulsf3+0x12>
    3444:	95 23       	and	r25, r21
    3446:	09 f0       	breq	.+2      	; 0x344a <__mulsf3+0x12>
    3448:	a2 cf       	rjmp	.-188    	; 0x338e <__fp_inf>
    344a:	a7 cf       	rjmp	.-178    	; 0x339a <__fp_nan>
    344c:	11 24       	eor	r1, r1
    344e:	ea cf       	rjmp	.-44     	; 0x3424 <__fp_szero>

00003450 <__mulsf3x>:
    3450:	c6 df       	rcall	.-116    	; 0x33de <__fp_split3>
    3452:	a0 f3       	brcs	.-24     	; 0x343c <__mulsf3+0x4>

00003454 <__mulsf3_pse>:
    3454:	95 9f       	mul	r25, r21
    3456:	d1 f3       	breq	.-12     	; 0x344c <__mulsf3+0x14>
    3458:	95 0f       	add	r25, r21
    345a:	50 e0       	ldi	r21, 0x00	; 0
    345c:	55 1f       	adc	r21, r21
    345e:	62 9f       	mul	r22, r18
    3460:	f0 01       	movw	r30, r0
    3462:	72 9f       	mul	r23, r18
    3464:	bb 27       	eor	r27, r27
    3466:	f0 0d       	add	r31, r0
    3468:	b1 1d       	adc	r27, r1
    346a:	63 9f       	mul	r22, r19
    346c:	aa 27       	eor	r26, r26
    346e:	f0 0d       	add	r31, r0
    3470:	b1 1d       	adc	r27, r1
    3472:	aa 1f       	adc	r26, r26
    3474:	64 9f       	mul	r22, r20
    3476:	66 27       	eor	r22, r22
    3478:	b0 0d       	add	r27, r0
    347a:	a1 1d       	adc	r26, r1
    347c:	66 1f       	adc	r22, r22
    347e:	82 9f       	mul	r24, r18
    3480:	22 27       	eor	r18, r18
    3482:	b0 0d       	add	r27, r0
    3484:	a1 1d       	adc	r26, r1
    3486:	62 1f       	adc	r22, r18
    3488:	73 9f       	mul	r23, r19
    348a:	b0 0d       	add	r27, r0
    348c:	a1 1d       	adc	r26, r1
    348e:	62 1f       	adc	r22, r18
    3490:	83 9f       	mul	r24, r19
    3492:	a0 0d       	add	r26, r0
    3494:	61 1d       	adc	r22, r1
    3496:	22 1f       	adc	r18, r18
    3498:	74 9f       	mul	r23, r20
    349a:	33 27       	eor	r19, r19
    349c:	a0 0d       	add	r26, r0
    349e:	61 1d       	adc	r22, r1
    34a0:	23 1f       	adc	r18, r19
    34a2:	84 9f       	mul	r24, r20
    34a4:	60 0d       	add	r22, r0
    34a6:	21 1d       	adc	r18, r1
    34a8:	82 2f       	mov	r24, r18
    34aa:	76 2f       	mov	r23, r22
    34ac:	6a 2f       	mov	r22, r26
    34ae:	11 24       	eor	r1, r1
    34b0:	9f 57       	subi	r25, 0x7F	; 127
    34b2:	50 40       	sbci	r21, 0x00	; 0
    34b4:	8a f0       	brmi	.+34     	; 0x34d8 <__mulsf3_pse+0x84>
    34b6:	e1 f0       	breq	.+56     	; 0x34f0 <__mulsf3_pse+0x9c>
    34b8:	88 23       	and	r24, r24
    34ba:	4a f0       	brmi	.+18     	; 0x34ce <__mulsf3_pse+0x7a>
    34bc:	ee 0f       	add	r30, r30
    34be:	ff 1f       	adc	r31, r31
    34c0:	bb 1f       	adc	r27, r27
    34c2:	66 1f       	adc	r22, r22
    34c4:	77 1f       	adc	r23, r23
    34c6:	88 1f       	adc	r24, r24
    34c8:	91 50       	subi	r25, 0x01	; 1
    34ca:	50 40       	sbci	r21, 0x00	; 0
    34cc:	a9 f7       	brne	.-22     	; 0x34b8 <__mulsf3_pse+0x64>
    34ce:	9e 3f       	cpi	r25, 0xFE	; 254
    34d0:	51 05       	cpc	r21, r1
    34d2:	70 f0       	brcs	.+28     	; 0x34f0 <__mulsf3_pse+0x9c>
    34d4:	5c cf       	rjmp	.-328    	; 0x338e <__fp_inf>
    34d6:	a6 cf       	rjmp	.-180    	; 0x3424 <__fp_szero>
    34d8:	5f 3f       	cpi	r21, 0xFF	; 255
    34da:	ec f3       	brlt	.-6      	; 0x34d6 <__mulsf3_pse+0x82>
    34dc:	98 3e       	cpi	r25, 0xE8	; 232
    34de:	dc f3       	brlt	.-10     	; 0x34d6 <__mulsf3_pse+0x82>
    34e0:	86 95       	lsr	r24
    34e2:	77 95       	ror	r23
    34e4:	67 95       	ror	r22
    34e6:	b7 95       	ror	r27
    34e8:	f7 95       	ror	r31
    34ea:	e7 95       	ror	r30
    34ec:	9f 5f       	subi	r25, 0xFF	; 255
    34ee:	c1 f7       	brne	.-16     	; 0x34e0 <__mulsf3_pse+0x8c>
    34f0:	fe 2b       	or	r31, r30
    34f2:	88 0f       	add	r24, r24
    34f4:	91 1d       	adc	r25, r1
    34f6:	96 95       	lsr	r25
    34f8:	87 95       	ror	r24
    34fa:	97 f9       	bld	r25, 7
    34fc:	08 95       	ret

000034fe <__udivmodqi4>:
    34fe:	99 1b       	sub	r25, r25
    3500:	79 e0       	ldi	r23, 0x09	; 9
    3502:	04 c0       	rjmp	.+8      	; 0x350c <__udivmodqi4_ep>

00003504 <__udivmodqi4_loop>:
    3504:	99 1f       	adc	r25, r25
    3506:	96 17       	cp	r25, r22
    3508:	08 f0       	brcs	.+2      	; 0x350c <__udivmodqi4_ep>
    350a:	96 1b       	sub	r25, r22

0000350c <__udivmodqi4_ep>:
    350c:	88 1f       	adc	r24, r24
    350e:	7a 95       	dec	r23
    3510:	c9 f7       	brne	.-14     	; 0x3504 <__udivmodqi4_loop>
    3512:	80 95       	com	r24
    3514:	08 95       	ret

00003516 <__divmodhi4>:
    3516:	97 fb       	bst	r25, 7
    3518:	09 2e       	mov	r0, r25
    351a:	07 26       	eor	r0, r23
    351c:	0a d0       	rcall	.+20     	; 0x3532 <__divmodhi4_neg1>
    351e:	77 fd       	sbrc	r23, 7
    3520:	04 d0       	rcall	.+8      	; 0x352a <__divmodhi4_neg2>
    3522:	43 d0       	rcall	.+134    	; 0x35aa <__udivmodhi4>
    3524:	06 d0       	rcall	.+12     	; 0x3532 <__divmodhi4_neg1>
    3526:	00 20       	and	r0, r0
    3528:	1a f4       	brpl	.+6      	; 0x3530 <__divmodhi4_exit>

0000352a <__divmodhi4_neg2>:
    352a:	70 95       	com	r23
    352c:	61 95       	neg	r22
    352e:	7f 4f       	sbci	r23, 0xFF	; 255

00003530 <__divmodhi4_exit>:
    3530:	08 95       	ret

00003532 <__divmodhi4_neg1>:
    3532:	f6 f7       	brtc	.-4      	; 0x3530 <__divmodhi4_exit>
    3534:	90 95       	com	r25
    3536:	81 95       	neg	r24
    3538:	9f 4f       	sbci	r25, 0xFF	; 255
    353a:	08 95       	ret

0000353c <__prologue_saves__>:
    353c:	2f 92       	push	r2
    353e:	3f 92       	push	r3
    3540:	4f 92       	push	r4
    3542:	5f 92       	push	r5
    3544:	6f 92       	push	r6
    3546:	7f 92       	push	r7
    3548:	8f 92       	push	r8
    354a:	9f 92       	push	r9
    354c:	af 92       	push	r10
    354e:	bf 92       	push	r11
    3550:	cf 92       	push	r12
    3552:	df 92       	push	r13
    3554:	ef 92       	push	r14
    3556:	ff 92       	push	r15
    3558:	0f 93       	push	r16
    355a:	1f 93       	push	r17
    355c:	cf 93       	push	r28
    355e:	df 93       	push	r29
    3560:	cd b7       	in	r28, 0x3d	; 61
    3562:	de b7       	in	r29, 0x3e	; 62
    3564:	ca 1b       	sub	r28, r26
    3566:	db 0b       	sbc	r29, r27
    3568:	0f b6       	in	r0, 0x3f	; 63
    356a:	f8 94       	cli
    356c:	de bf       	out	0x3e, r29	; 62
    356e:	0f be       	out	0x3f, r0	; 63
    3570:	cd bf       	out	0x3d, r28	; 61
    3572:	09 94       	ijmp

00003574 <__epilogue_restores__>:
    3574:	2a 88       	ldd	r2, Y+18	; 0x12
    3576:	39 88       	ldd	r3, Y+17	; 0x11
    3578:	48 88       	ldd	r4, Y+16	; 0x10
    357a:	5f 84       	ldd	r5, Y+15	; 0x0f
    357c:	6e 84       	ldd	r6, Y+14	; 0x0e
    357e:	7d 84       	ldd	r7, Y+13	; 0x0d
    3580:	8c 84       	ldd	r8, Y+12	; 0x0c
    3582:	9b 84       	ldd	r9, Y+11	; 0x0b
    3584:	aa 84       	ldd	r10, Y+10	; 0x0a
    3586:	b9 84       	ldd	r11, Y+9	; 0x09
    3588:	c8 84       	ldd	r12, Y+8	; 0x08
    358a:	df 80       	ldd	r13, Y+7	; 0x07
    358c:	ee 80       	ldd	r14, Y+6	; 0x06
    358e:	fd 80       	ldd	r15, Y+5	; 0x05
    3590:	0c 81       	ldd	r16, Y+4	; 0x04
    3592:	1b 81       	ldd	r17, Y+3	; 0x03
    3594:	aa 81       	ldd	r26, Y+2	; 0x02
    3596:	b9 81       	ldd	r27, Y+1	; 0x01
    3598:	ce 0f       	add	r28, r30
    359a:	d1 1d       	adc	r29, r1
    359c:	0f b6       	in	r0, 0x3f	; 63
    359e:	f8 94       	cli
    35a0:	de bf       	out	0x3e, r29	; 62
    35a2:	0f be       	out	0x3f, r0	; 63
    35a4:	cd bf       	out	0x3d, r28	; 61
    35a6:	ed 01       	movw	r28, r26
    35a8:	08 95       	ret

000035aa <__udivmodhi4>:
    35aa:	aa 1b       	sub	r26, r26
    35ac:	bb 1b       	sub	r27, r27
    35ae:	51 e1       	ldi	r21, 0x11	; 17
    35b0:	07 c0       	rjmp	.+14     	; 0x35c0 <__udivmodhi4_ep>

000035b2 <__udivmodhi4_loop>:
    35b2:	aa 1f       	adc	r26, r26
    35b4:	bb 1f       	adc	r27, r27
    35b6:	a6 17       	cp	r26, r22
    35b8:	b7 07       	cpc	r27, r23
    35ba:	10 f0       	brcs	.+4      	; 0x35c0 <__udivmodhi4_ep>
    35bc:	a6 1b       	sub	r26, r22
    35be:	b7 0b       	sbc	r27, r23

000035c0 <__udivmodhi4_ep>:
    35c0:	88 1f       	adc	r24, r24
    35c2:	99 1f       	adc	r25, r25
    35c4:	5a 95       	dec	r21
    35c6:	a9 f7       	brne	.-22     	; 0x35b2 <__udivmodhi4_loop>
    35c8:	80 95       	com	r24
    35ca:	90 95       	com	r25
    35cc:	bc 01       	movw	r22, r24
    35ce:	cd 01       	movw	r24, r26
    35d0:	08 95       	ret

000035d2 <__ftoa_engine>:
    35d2:	28 30       	cpi	r18, 0x08	; 8
    35d4:	08 f0       	brcs	.+2      	; 0x35d8 <__ftoa_engine+0x6>
    35d6:	27 e0       	ldi	r18, 0x07	; 7
    35d8:	33 27       	eor	r19, r19
    35da:	da 01       	movw	r26, r20
    35dc:	99 0f       	add	r25, r25
    35de:	31 1d       	adc	r19, r1
    35e0:	87 fd       	sbrc	r24, 7
    35e2:	91 60       	ori	r25, 0x01	; 1
    35e4:	00 96       	adiw	r24, 0x00	; 0
    35e6:	61 05       	cpc	r22, r1
    35e8:	71 05       	cpc	r23, r1
    35ea:	39 f4       	brne	.+14     	; 0x35fa <__ftoa_engine+0x28>
    35ec:	32 60       	ori	r19, 0x02	; 2
    35ee:	2e 5f       	subi	r18, 0xFE	; 254
    35f0:	3d 93       	st	X+, r19
    35f2:	30 e3       	ldi	r19, 0x30	; 48
    35f4:	2a 95       	dec	r18
    35f6:	e1 f7       	brne	.-8      	; 0x35f0 <__ftoa_engine+0x1e>
    35f8:	08 95       	ret
    35fa:	9f 3f       	cpi	r25, 0xFF	; 255
    35fc:	30 f0       	brcs	.+12     	; 0x360a <__ftoa_engine+0x38>
    35fe:	80 38       	cpi	r24, 0x80	; 128
    3600:	71 05       	cpc	r23, r1
    3602:	61 05       	cpc	r22, r1
    3604:	09 f0       	breq	.+2      	; 0x3608 <__ftoa_engine+0x36>
    3606:	3c 5f       	subi	r19, 0xFC	; 252
    3608:	3c 5f       	subi	r19, 0xFC	; 252
    360a:	3d 93       	st	X+, r19
    360c:	91 30       	cpi	r25, 0x01	; 1
    360e:	08 f0       	brcs	.+2      	; 0x3612 <__ftoa_engine+0x40>
    3610:	80 68       	ori	r24, 0x80	; 128
    3612:	91 1d       	adc	r25, r1
    3614:	df 93       	push	r29
    3616:	cf 93       	push	r28
    3618:	1f 93       	push	r17
    361a:	0f 93       	push	r16
    361c:	ff 92       	push	r15
    361e:	ef 92       	push	r14
    3620:	19 2f       	mov	r17, r25
    3622:	98 7f       	andi	r25, 0xF8	; 248
    3624:	96 95       	lsr	r25
    3626:	e9 2f       	mov	r30, r25
    3628:	96 95       	lsr	r25
    362a:	96 95       	lsr	r25
    362c:	e9 0f       	add	r30, r25
    362e:	ff 27       	eor	r31, r31
    3630:	e6 53       	subi	r30, 0x36	; 54
    3632:	ff 4f       	sbci	r31, 0xFF	; 255
    3634:	99 27       	eor	r25, r25
    3636:	33 27       	eor	r19, r19
    3638:	ee 24       	eor	r14, r14
    363a:	ff 24       	eor	r15, r15
    363c:	a7 01       	movw	r20, r14
    363e:	e7 01       	movw	r28, r14
    3640:	05 90       	lpm	r0, Z+
    3642:	08 94       	sec
    3644:	07 94       	ror	r0
    3646:	28 f4       	brcc	.+10     	; 0x3652 <__ftoa_engine+0x80>
    3648:	36 0f       	add	r19, r22
    364a:	e7 1e       	adc	r14, r23
    364c:	f8 1e       	adc	r15, r24
    364e:	49 1f       	adc	r20, r25
    3650:	51 1d       	adc	r21, r1
    3652:	66 0f       	add	r22, r22
    3654:	77 1f       	adc	r23, r23
    3656:	88 1f       	adc	r24, r24
    3658:	99 1f       	adc	r25, r25
    365a:	06 94       	lsr	r0
    365c:	a1 f7       	brne	.-24     	; 0x3646 <__ftoa_engine+0x74>
    365e:	05 90       	lpm	r0, Z+
    3660:	07 94       	ror	r0
    3662:	28 f4       	brcc	.+10     	; 0x366e <__ftoa_engine+0x9c>
    3664:	e7 0e       	add	r14, r23
    3666:	f8 1e       	adc	r15, r24
    3668:	49 1f       	adc	r20, r25
    366a:	56 1f       	adc	r21, r22
    366c:	c1 1d       	adc	r28, r1
    366e:	77 0f       	add	r23, r23
    3670:	88 1f       	adc	r24, r24
    3672:	99 1f       	adc	r25, r25
    3674:	66 1f       	adc	r22, r22
    3676:	06 94       	lsr	r0
    3678:	a1 f7       	brne	.-24     	; 0x3662 <__ftoa_engine+0x90>
    367a:	05 90       	lpm	r0, Z+
    367c:	07 94       	ror	r0
    367e:	28 f4       	brcc	.+10     	; 0x368a <__ftoa_engine+0xb8>
    3680:	f8 0e       	add	r15, r24
    3682:	49 1f       	adc	r20, r25
    3684:	56 1f       	adc	r21, r22
    3686:	c7 1f       	adc	r28, r23
    3688:	d1 1d       	adc	r29, r1
    368a:	88 0f       	add	r24, r24
    368c:	99 1f       	adc	r25, r25
    368e:	66 1f       	adc	r22, r22
    3690:	77 1f       	adc	r23, r23
    3692:	06 94       	lsr	r0
    3694:	a1 f7       	brne	.-24     	; 0x367e <__ftoa_engine+0xac>
    3696:	05 90       	lpm	r0, Z+
    3698:	07 94       	ror	r0
    369a:	20 f4       	brcc	.+8      	; 0x36a4 <__ftoa_engine+0xd2>
    369c:	49 0f       	add	r20, r25
    369e:	56 1f       	adc	r21, r22
    36a0:	c7 1f       	adc	r28, r23
    36a2:	d8 1f       	adc	r29, r24
    36a4:	99 0f       	add	r25, r25
    36a6:	66 1f       	adc	r22, r22
    36a8:	77 1f       	adc	r23, r23
    36aa:	88 1f       	adc	r24, r24
    36ac:	06 94       	lsr	r0
    36ae:	a9 f7       	brne	.-22     	; 0x369a <__ftoa_engine+0xc8>
    36b0:	84 91       	lpm	r24, Z+
    36b2:	10 95       	com	r17
    36b4:	17 70       	andi	r17, 0x07	; 7
    36b6:	41 f0       	breq	.+16     	; 0x36c8 <__ftoa_engine+0xf6>
    36b8:	d6 95       	lsr	r29
    36ba:	c7 95       	ror	r28
    36bc:	57 95       	ror	r21
    36be:	47 95       	ror	r20
    36c0:	f7 94       	ror	r15
    36c2:	e7 94       	ror	r14
    36c4:	1a 95       	dec	r17
    36c6:	c1 f7       	brne	.-16     	; 0x36b8 <__ftoa_engine+0xe6>
    36c8:	e0 e7       	ldi	r30, 0x70	; 112
    36ca:	f0 e0       	ldi	r31, 0x00	; 0
    36cc:	68 94       	set
    36ce:	15 90       	lpm	r1, Z+
    36d0:	15 91       	lpm	r17, Z+
    36d2:	35 91       	lpm	r19, Z+
    36d4:	65 91       	lpm	r22, Z+
    36d6:	95 91       	lpm	r25, Z+
    36d8:	05 90       	lpm	r0, Z+
    36da:	7f e2       	ldi	r23, 0x2F	; 47
    36dc:	73 95       	inc	r23
    36de:	e1 18       	sub	r14, r1
    36e0:	f1 0a       	sbc	r15, r17
    36e2:	43 0b       	sbc	r20, r19
    36e4:	56 0b       	sbc	r21, r22
    36e6:	c9 0b       	sbc	r28, r25
    36e8:	d0 09       	sbc	r29, r0
    36ea:	c0 f7       	brcc	.-16     	; 0x36dc <__ftoa_engine+0x10a>
    36ec:	e1 0c       	add	r14, r1
    36ee:	f1 1e       	adc	r15, r17
    36f0:	43 1f       	adc	r20, r19
    36f2:	56 1f       	adc	r21, r22
    36f4:	c9 1f       	adc	r28, r25
    36f6:	d0 1d       	adc	r29, r0
    36f8:	7e f4       	brtc	.+30     	; 0x3718 <__ftoa_engine+0x146>
    36fa:	70 33       	cpi	r23, 0x30	; 48
    36fc:	11 f4       	brne	.+4      	; 0x3702 <__ftoa_engine+0x130>
    36fe:	8a 95       	dec	r24
    3700:	e6 cf       	rjmp	.-52     	; 0x36ce <__ftoa_engine+0xfc>
    3702:	e8 94       	clt
    3704:	01 50       	subi	r16, 0x01	; 1
    3706:	30 f0       	brcs	.+12     	; 0x3714 <__ftoa_engine+0x142>
    3708:	08 0f       	add	r16, r24
    370a:	0a f4       	brpl	.+2      	; 0x370e <__ftoa_engine+0x13c>
    370c:	00 27       	eor	r16, r16
    370e:	02 17       	cp	r16, r18
    3710:	08 f4       	brcc	.+2      	; 0x3714 <__ftoa_engine+0x142>
    3712:	20 2f       	mov	r18, r16
    3714:	23 95       	inc	r18
    3716:	02 2f       	mov	r16, r18
    3718:	7a 33       	cpi	r23, 0x3A	; 58
    371a:	28 f0       	brcs	.+10     	; 0x3726 <__ftoa_engine+0x154>
    371c:	79 e3       	ldi	r23, 0x39	; 57
    371e:	7d 93       	st	X+, r23
    3720:	2a 95       	dec	r18
    3722:	e9 f7       	brne	.-6      	; 0x371e <__ftoa_engine+0x14c>
    3724:	10 c0       	rjmp	.+32     	; 0x3746 <__ftoa_engine+0x174>
    3726:	7d 93       	st	X+, r23
    3728:	2a 95       	dec	r18
    372a:	89 f6       	brne	.-94     	; 0x36ce <__ftoa_engine+0xfc>
    372c:	06 94       	lsr	r0
    372e:	97 95       	ror	r25
    3730:	67 95       	ror	r22
    3732:	37 95       	ror	r19
    3734:	17 95       	ror	r17
    3736:	17 94       	ror	r1
    3738:	e1 18       	sub	r14, r1
    373a:	f1 0a       	sbc	r15, r17
    373c:	43 0b       	sbc	r20, r19
    373e:	56 0b       	sbc	r21, r22
    3740:	c9 0b       	sbc	r28, r25
    3742:	d0 09       	sbc	r29, r0
    3744:	98 f0       	brcs	.+38     	; 0x376c <__ftoa_engine+0x19a>
    3746:	23 95       	inc	r18
    3748:	7e 91       	ld	r23, -X
    374a:	73 95       	inc	r23
    374c:	7a 33       	cpi	r23, 0x3A	; 58
    374e:	08 f0       	brcs	.+2      	; 0x3752 <__ftoa_engine+0x180>
    3750:	70 e3       	ldi	r23, 0x30	; 48
    3752:	7c 93       	st	X, r23
    3754:	20 13       	cpse	r18, r16
    3756:	b8 f7       	brcc	.-18     	; 0x3746 <__ftoa_engine+0x174>
    3758:	7e 91       	ld	r23, -X
    375a:	70 61       	ori	r23, 0x10	; 16
    375c:	7d 93       	st	X+, r23
    375e:	30 f0       	brcs	.+12     	; 0x376c <__ftoa_engine+0x19a>
    3760:	83 95       	inc	r24
    3762:	71 e3       	ldi	r23, 0x31	; 49
    3764:	7d 93       	st	X+, r23
    3766:	70 e3       	ldi	r23, 0x30	; 48
    3768:	2a 95       	dec	r18
    376a:	e1 f7       	brne	.-8      	; 0x3764 <__ftoa_engine+0x192>
    376c:	11 24       	eor	r1, r1
    376e:	ef 90       	pop	r14
    3770:	ff 90       	pop	r15
    3772:	0f 91       	pop	r16
    3774:	1f 91       	pop	r17
    3776:	cf 91       	pop	r28
    3778:	df 91       	pop	r29
    377a:	99 27       	eor	r25, r25
    377c:	87 fd       	sbrc	r24, 7
    377e:	90 95       	com	r25
    3780:	08 95       	ret

00003782 <strnlen_P>:
    3782:	fc 01       	movw	r30, r24
    3784:	05 90       	lpm	r0, Z+
    3786:	61 50       	subi	r22, 0x01	; 1
    3788:	70 40       	sbci	r23, 0x00	; 0
    378a:	01 10       	cpse	r0, r1
    378c:	d8 f7       	brcc	.-10     	; 0x3784 <strnlen_P+0x2>
    378e:	80 95       	com	r24
    3790:	90 95       	com	r25
    3792:	8e 0f       	add	r24, r30
    3794:	9f 1f       	adc	r25, r31
    3796:	08 95       	ret

00003798 <strnlen>:
    3798:	fc 01       	movw	r30, r24
    379a:	61 50       	subi	r22, 0x01	; 1
    379c:	70 40       	sbci	r23, 0x00	; 0
    379e:	01 90       	ld	r0, Z+
    37a0:	01 10       	cpse	r0, r1
    37a2:	d8 f7       	brcc	.-10     	; 0x379a <strnlen+0x2>
    37a4:	80 95       	com	r24
    37a6:	90 95       	com	r25
    37a8:	8e 0f       	add	r24, r30
    37aa:	9f 1f       	adc	r25, r31
    37ac:	08 95       	ret

000037ae <fputc>:
    37ae:	0f 93       	push	r16
    37b0:	1f 93       	push	r17
    37b2:	cf 93       	push	r28
    37b4:	df 93       	push	r29
    37b6:	8c 01       	movw	r16, r24
    37b8:	eb 01       	movw	r28, r22
    37ba:	8b 81       	ldd	r24, Y+3	; 0x03
    37bc:	81 ff       	sbrs	r24, 1
    37be:	1b c0       	rjmp	.+54     	; 0x37f6 <fputc+0x48>
    37c0:	82 ff       	sbrs	r24, 2
    37c2:	0d c0       	rjmp	.+26     	; 0x37de <fputc+0x30>
    37c4:	2e 81       	ldd	r18, Y+6	; 0x06
    37c6:	3f 81       	ldd	r19, Y+7	; 0x07
    37c8:	8c 81       	ldd	r24, Y+4	; 0x04
    37ca:	9d 81       	ldd	r25, Y+5	; 0x05
    37cc:	28 17       	cp	r18, r24
    37ce:	39 07       	cpc	r19, r25
    37d0:	64 f4       	brge	.+24     	; 0x37ea <fputc+0x3c>
    37d2:	e8 81       	ld	r30, Y
    37d4:	f9 81       	ldd	r31, Y+1	; 0x01
    37d6:	01 93       	st	Z+, r16
    37d8:	f9 83       	std	Y+1, r31	; 0x01
    37da:	e8 83       	st	Y, r30
    37dc:	06 c0       	rjmp	.+12     	; 0x37ea <fputc+0x3c>
    37de:	e8 85       	ldd	r30, Y+8	; 0x08
    37e0:	f9 85       	ldd	r31, Y+9	; 0x09
    37e2:	80 2f       	mov	r24, r16
    37e4:	09 95       	icall
    37e6:	00 97       	sbiw	r24, 0x00	; 0
    37e8:	31 f4       	brne	.+12     	; 0x37f6 <fputc+0x48>
    37ea:	8e 81       	ldd	r24, Y+6	; 0x06
    37ec:	9f 81       	ldd	r25, Y+7	; 0x07
    37ee:	01 96       	adiw	r24, 0x01	; 1
    37f0:	9f 83       	std	Y+7, r25	; 0x07
    37f2:	8e 83       	std	Y+6, r24	; 0x06
    37f4:	02 c0       	rjmp	.+4      	; 0x37fa <fputc+0x4c>
    37f6:	0f ef       	ldi	r16, 0xFF	; 255
    37f8:	1f ef       	ldi	r17, 0xFF	; 255
    37fa:	c8 01       	movw	r24, r16
    37fc:	df 91       	pop	r29
    37fe:	cf 91       	pop	r28
    3800:	1f 91       	pop	r17
    3802:	0f 91       	pop	r16
    3804:	08 95       	ret

00003806 <sprintf>:
    3806:	ae e0       	ldi	r26, 0x0E	; 14
    3808:	b0 e0       	ldi	r27, 0x00	; 0
    380a:	e9 e0       	ldi	r30, 0x09	; 9
    380c:	fc e1       	ldi	r31, 0x1C	; 28
    380e:	0c 94 ac 1a 	jmp	0x3558	; 0x3558 <__prologue_saves__+0x1c>
    3812:	0d 89       	ldd	r16, Y+21	; 0x15
    3814:	1e 89       	ldd	r17, Y+22	; 0x16
    3816:	86 e0       	ldi	r24, 0x06	; 6
    3818:	8c 83       	std	Y+4, r24	; 0x04
    381a:	1a 83       	std	Y+2, r17	; 0x02
    381c:	09 83       	std	Y+1, r16	; 0x01
    381e:	8f ef       	ldi	r24, 0xFF	; 255
    3820:	9f e7       	ldi	r25, 0x7F	; 127
    3822:	9e 83       	std	Y+6, r25	; 0x06
    3824:	8d 83       	std	Y+5, r24	; 0x05
    3826:	9e 01       	movw	r18, r28
    3828:	27 5e       	subi	r18, 0xE7	; 231
    382a:	3f 4f       	sbci	r19, 0xFF	; 255
    382c:	ce 01       	movw	r24, r28
    382e:	01 96       	adiw	r24, 0x01	; 1
    3830:	6f 89       	ldd	r22, Y+23	; 0x17
    3832:	78 8d       	ldd	r23, Y+24	; 0x18
    3834:	a9 01       	movw	r20, r18
    3836:	0e 94 de 14 	call	0x29bc	; 0x29bc <vfprintf>
    383a:	ef 81       	ldd	r30, Y+7	; 0x07
    383c:	f8 85       	ldd	r31, Y+8	; 0x08
    383e:	e0 0f       	add	r30, r16
    3840:	f1 1f       	adc	r31, r17
    3842:	10 82       	st	Z, r1
    3844:	2e 96       	adiw	r28, 0x0e	; 14
    3846:	e4 e0       	ldi	r30, 0x04	; 4
    3848:	0c 94 c8 1a 	jmp	0x3590	; 0x3590 <__epilogue_restores__+0x1c>

0000384c <__ultoa_invert>:
    384c:	fa 01       	movw	r30, r20
    384e:	aa 27       	eor	r26, r26
    3850:	28 30       	cpi	r18, 0x08	; 8
    3852:	51 f1       	breq	.+84     	; 0x38a8 <__ultoa_invert+0x5c>
    3854:	20 31       	cpi	r18, 0x10	; 16
    3856:	81 f1       	breq	.+96     	; 0x38b8 <__ultoa_invert+0x6c>
    3858:	e8 94       	clt
    385a:	6f 93       	push	r22
    385c:	6e 7f       	andi	r22, 0xFE	; 254
    385e:	6e 5f       	subi	r22, 0xFE	; 254
    3860:	7f 4f       	sbci	r23, 0xFF	; 255
    3862:	8f 4f       	sbci	r24, 0xFF	; 255
    3864:	9f 4f       	sbci	r25, 0xFF	; 255
    3866:	af 4f       	sbci	r26, 0xFF	; 255
    3868:	b1 e0       	ldi	r27, 0x01	; 1
    386a:	3e d0       	rcall	.+124    	; 0x38e8 <__ultoa_invert+0x9c>
    386c:	b4 e0       	ldi	r27, 0x04	; 4
    386e:	3c d0       	rcall	.+120    	; 0x38e8 <__ultoa_invert+0x9c>
    3870:	67 0f       	add	r22, r23
    3872:	78 1f       	adc	r23, r24
    3874:	89 1f       	adc	r24, r25
    3876:	9a 1f       	adc	r25, r26
    3878:	a1 1d       	adc	r26, r1
    387a:	68 0f       	add	r22, r24
    387c:	79 1f       	adc	r23, r25
    387e:	8a 1f       	adc	r24, r26
    3880:	91 1d       	adc	r25, r1
    3882:	a1 1d       	adc	r26, r1
    3884:	6a 0f       	add	r22, r26
    3886:	71 1d       	adc	r23, r1
    3888:	81 1d       	adc	r24, r1
    388a:	91 1d       	adc	r25, r1
    388c:	a1 1d       	adc	r26, r1
    388e:	20 d0       	rcall	.+64     	; 0x38d0 <__ultoa_invert+0x84>
    3890:	09 f4       	brne	.+2      	; 0x3894 <__ultoa_invert+0x48>
    3892:	68 94       	set
    3894:	3f 91       	pop	r19
    3896:	2a e0       	ldi	r18, 0x0A	; 10
    3898:	26 9f       	mul	r18, r22
    389a:	11 24       	eor	r1, r1
    389c:	30 19       	sub	r19, r0
    389e:	30 5d       	subi	r19, 0xD0	; 208
    38a0:	31 93       	st	Z+, r19
    38a2:	de f6       	brtc	.-74     	; 0x385a <__ultoa_invert+0xe>
    38a4:	cf 01       	movw	r24, r30
    38a6:	08 95       	ret
    38a8:	46 2f       	mov	r20, r22
    38aa:	47 70       	andi	r20, 0x07	; 7
    38ac:	40 5d       	subi	r20, 0xD0	; 208
    38ae:	41 93       	st	Z+, r20
    38b0:	b3 e0       	ldi	r27, 0x03	; 3
    38b2:	0f d0       	rcall	.+30     	; 0x38d2 <__ultoa_invert+0x86>
    38b4:	c9 f7       	brne	.-14     	; 0x38a8 <__ultoa_invert+0x5c>
    38b6:	f6 cf       	rjmp	.-20     	; 0x38a4 <__ultoa_invert+0x58>
    38b8:	46 2f       	mov	r20, r22
    38ba:	4f 70       	andi	r20, 0x0F	; 15
    38bc:	40 5d       	subi	r20, 0xD0	; 208
    38be:	4a 33       	cpi	r20, 0x3A	; 58
    38c0:	18 f0       	brcs	.+6      	; 0x38c8 <__ultoa_invert+0x7c>
    38c2:	49 5d       	subi	r20, 0xD9	; 217
    38c4:	31 fd       	sbrc	r19, 1
    38c6:	40 52       	subi	r20, 0x20	; 32
    38c8:	41 93       	st	Z+, r20
    38ca:	02 d0       	rcall	.+4      	; 0x38d0 <__ultoa_invert+0x84>
    38cc:	a9 f7       	brne	.-22     	; 0x38b8 <__ultoa_invert+0x6c>
    38ce:	ea cf       	rjmp	.-44     	; 0x38a4 <__ultoa_invert+0x58>
    38d0:	b4 e0       	ldi	r27, 0x04	; 4
    38d2:	a6 95       	lsr	r26
    38d4:	97 95       	ror	r25
    38d6:	87 95       	ror	r24
    38d8:	77 95       	ror	r23
    38da:	67 95       	ror	r22
    38dc:	ba 95       	dec	r27
    38de:	c9 f7       	brne	.-14     	; 0x38d2 <__ultoa_invert+0x86>
    38e0:	00 97       	sbiw	r24, 0x00	; 0
    38e2:	61 05       	cpc	r22, r1
    38e4:	71 05       	cpc	r23, r1
    38e6:	08 95       	ret
    38e8:	9b 01       	movw	r18, r22
    38ea:	ac 01       	movw	r20, r24
    38ec:	0a 2e       	mov	r0, r26
    38ee:	06 94       	lsr	r0
    38f0:	57 95       	ror	r21
    38f2:	47 95       	ror	r20
    38f4:	37 95       	ror	r19
    38f6:	27 95       	ror	r18
    38f8:	ba 95       	dec	r27
    38fa:	c9 f7       	brne	.-14     	; 0x38ee <__ultoa_invert+0xa2>
    38fc:	62 0f       	add	r22, r18
    38fe:	73 1f       	adc	r23, r19
    3900:	84 1f       	adc	r24, r20
    3902:	95 1f       	adc	r25, r21
    3904:	a0 1d       	adc	r26, r0
    3906:	08 95       	ret

00003908 <_exit>:
    3908:	f8 94       	cli

0000390a <__stop_program>:
    390a:	ff cf       	rjmp	.-2      	; 0x390a <__stop_program>
